(dp0
S't_log'
p1
(lp2
I60000
aI70000
aI80000
aI90000
aI100000
aI110000
aI120000
aI130000
aI140000
aI150000
aI160000
aI170000
aI180000
aI190000
aI200000
asS'mean_reward_log'
p3
(lp4
cnumpy.core.multiarray
scalar
p5
(cnumpy
dtype
p6
(S'f8'
p7
I0
I1
tp8
Rp9
(I3
S'<'
p10
NNNI-1
I-1
I0
tp11
bS'\xad\xd4J\xad\xd4J4\xc0'
p12
tp13
Rp14
ag5
(g9
S'y\r\xe55\x94W4\xc0'
p15
tp16
Rp17
ag5
(g9
S'j\x84\xe5\x9eFX4\xc0'
p18
tp19
Rp20
ag5
(g9
S'\xe0\x8b\xab\x1ftT4\xc0'
p21
tp22
Rp23
ag5
(g9
S'\xcd\xcc\xcc\xcc\xccL4\xc0'
p24
tp25
Rp26
ag5
(g9
S'R\xb8\x1e\x85\xebQ4\xc0'
p27
tp28
Rp29
ag5
(g9
S'R\xb8\x1e\x85\xebQ4\xc0'
p30
tp31
Rp32
ag5
(g9
S'\x00\x00\x00\x00\x00@4\xc0'
p33
tp34
Rp35
ag5
(g9
S'{\x14\xaeG\xe1:4\xc0'
p36
tp37
Rp38
ag5
(g9
S'q=\n\xd7\xa304\xc0'
p39
tp40
Rp41
ag5
(g9
S'\xa4p=\n\xd7#4\xc0'
p42
tp43
Rp44
ag5
(g9
S')\\\x8f\xc2\xf5(4\xc0'
p45
tp46
Rp47
ag5
(g9
S'\\\x8f\xc2\xf5(\x1c4\xc0'
p48
tp49
Rp50
ag5
(g9
S'\\\x8f\xc2\xf5(\x1c4\xc0'
p51
tp52
Rp53
ag5
(g9
S'R\xb8\x1e\x85\xeb\x114\xc0'
p54
tp55
Rp56
asS'learning_rate_log'
p57
(lp58
F0.0001
aF0.0001
aF0.0001
aF0.0001
aF0.0001
aF0.0001
aF0.0001
aF0.0001
aF0.0001
aF0.0001
aF0.0001
aF0.0001
aF0.0001
aF0.0001
aF0.0001
asS'exploration_log'
p59
(lp60
F0.473
aF0.46849999999999997
aF0.46399999999999997
aF0.4595
aF0.455
aF0.4505
aF0.446
aF0.4415
aF0.437
aF0.4325
aF0.428
aF0.4235
aF0.419
aF0.4145
aF0.41
asS'best_mean_log'
p61
(lp62
F-inf
aF-inf
aF-inf
aF-inf
ag5
(g9
S'\n\xd7\xa3p=J4\xc0'
p63
tp64
Rp65
ag5
(g9
S'\x85\xebQ\xb8\x1eE4\xc0'
p66
tp67
Rp68
ag68
ag5
(g9
S'\x00\x00\x00\x00\x00@4\xc0'
p69
tp70
Rp71
ag5
(g9
S'{\x14\xaeG\xe1:4\xc0'
p72
tp73
Rp74
ag5
(g9
S'q=\n\xd7\xa304\xc0'
p75
tp76
Rp77
ag5
(g9
S'\xa4p=\n\xd7#4\xc0'
p78
tp79
Rp80
ag5
(g9
S'\xe1z\x14\xaeG!4\xc0'
p81
tp82
Rp83
ag5
(g9
S'\\\x8f\xc2\xf5(\x1c4\xc0'
p84
tp85
Rp86
ag86
ag5
(g9
S'\x8f\xc2\xf5(\\\x0f4\xc0'
p87
tp88
Rp89
asS'episodes_log'
p90
(lp91
(lp92
F-21.0
aF-20.0
aF-19.0
aF-21.0
aF-20.0
aF-19.0
aF-21.0
aF-21.0
aF-21.0
aF-20.0
aF-21.0
aF-20.0
aF-19.0
aF-21.0
aF-20.0
aF-19.0
aF-19.0
aF-21.0
aF-20.0
aF-19.0
aF-20.0
aF-21.0
aF-21.0
aF-19.0
aF-19.0
aF-19.0
aF-20.0
aF-19.0
aF-21.0
aF-21.0
aF-20.0
aF-21.0
aF-21.0
aF-20.0
aF-21.0
aF-21.0
aF-21.0
aF-21.0
aF-20.0
aF-21.0
aF-21.0
aF-19.0
aF-21.0
aF-20.0
aF-20.0
aF-20.0
aF-21.0
aF-20.0
aF-20.0
aF-19.0
aF-21.0
aF-18.0
aF-21.0
aF-21.0
aF-21.0
aF-21.0
aF-21.0
aF-21.0
aF-21.0
aF-21.0
aF-21.0
aF-20.0
aF-20.0
aF-21.0
aF-20.0
aF-21.0
aF-21.0
aF-21.0
aF-20.0
aF-21.0
aF-21.0
aF-20.0
aF-20.0
aF-20.0
aF-21.0
aF-21.0
aF-21.0
aF-21.0
aF-20.0
aF-20.0
aF-20.0
aF-20.0
aF-21.0
aF-20.0
aF-21.0
aF-20.0
aF-20.0
aF-21.0
aF-21.0
aF-20.0
aF-20.0
aF-21.0
aF-20.0
aF-17.0
aF-20.0
aF-21.0
aF-21.0
aF-20.0
aF-20.0
aF-20.0
aF-18.0
aF-20.0
aF-20.0
aF-21.0
aF-20.0
aF-20.0
aF-21.0
aF-20.0
aF-19.0
aF-21.0
aF-19.0
aF-20.0
aF-21.0
aF-19.0
aF-21.0
aF-21.0
aF-21.0
aF-20.0
aF-21.0
aF-20.0
aF-20.0
aF-20.0
aF-20.0
aF-21.0
aF-20.0
aF-20.0
aF-20.0
aF-19.0
aF-20.0
aF-19.0
aF-20.0
aF-20.0
aF-20.0
aF-21.0
aF-20.0
aF-20.0
aF-21.0
aF-19.0
aF-18.0
aF-21.0
aF-21.0
aF-20.0
aF-20.0
aF-19.0
aF-20.0
aF-19.0
aF-21.0
aF-20.0
aF-20.0
aF-20.0
aF-20.0
aF-21.0
aF-19.0
aF-20.0
aF-21.0
aF-20.0
aF-20.0
aF-20.0
aF-20.0
aF-21.0
aF-21.0
aF-21.0
aF-18.0
aF-18.0
aF-21.0
aF-20.0
aF-21.0
aF-21.0
aF-21.0
aF-20.0
aF-20.0
aF-21.0
aF-21.0
aF-21.0
aF-19.0
aF-21.0
aF-21.0
aF-19.0
aF-21.0
aF-21.0
aF-21.0
aF-18.0
aF-20.0
aF-21.0
aF-20.0
aF-21.0
aF-20.0
aF-19.0
aF-20.0
aF-20.0
aF-20.0
aF-21.0
aF-21.0
aF-18.0
aF-20.0
aF-19.0
aF-21.0
aF-20.0
aF-20.0
aF-20.0
aF-19.0
aF-20.0
aF-18.0
aF-20.0
aF-19.0
aF-21.0
aF-18.0
aF-20.0
aF-20.0
aag92
ag92
ag92
ag92
ag92
ag92
ag92
ag92
ag92
ag92
ag92
ag92
ag92
ag92
as.