(dp0
S't_log'
p1
(lp2
I60000
aI70000
aI80000
aI90000
aI100000
aI110000
aI120000
aI130000
aI140000
aI150000
aI160000
aI170000
aI180000
aI190000
aI200000
aI210000
aI220000
aI230000
aI240000
aI250000
aI260000
aI270000
aI280000
aI290000
aI300000
aI310000
aI320000
aI330000
aI340000
aI350000
aI360000
aI370000
aI380000
aI390000
aI400000
asS'mean_reward_log'
p3
(lp4
cnumpy.core.multiarray
scalar
p5
(cnumpy
dtype
p6
(S'f8'
p7
I0
I1
tp8
Rp9
(I3
S'<'
p10
NNNI-1
I-1
I0
tp11
bS'\xad\xd4J\xad\xd4J4\xc0'
p12
tp13
Rp14
ag5
(g9
S'y\r\xe55\x94W4\xc0'
p15
tp16
Rp17
ag5
(g9
S'j\x84\xe5\x9eFX4\xc0'
p18
tp19
Rp20
ag5
(g9
S'\xe0\x8b\xab\x1ftT4\xc0'
p21
tp22
Rp23
ag5
(g9
S'\xcd\xcc\xcc\xcc\xccL4\xc0'
p24
tp25
Rp26
ag5
(g9
S'R\xb8\x1e\x85\xebQ4\xc0'
p27
tp28
Rp29
ag5
(g9
S'R\xb8\x1e\x85\xebQ4\xc0'
p30
tp31
Rp32
ag5
(g9
S'\x00\x00\x00\x00\x00@4\xc0'
p33
tp34
Rp35
ag5
(g9
S'{\x14\xaeG\xe1:4\xc0'
p36
tp37
Rp38
ag5
(g9
S'q=\n\xd7\xa304\xc0'
p39
tp40
Rp41
ag5
(g9
S'\xa4p=\n\xd7#4\xc0'
p42
tp43
Rp44
ag5
(g9
S')\\\x8f\xc2\xf5(4\xc0'
p45
tp46
Rp47
ag5
(g9
S'\\\x8f\xc2\xf5(\x1c4\xc0'
p48
tp49
Rp50
ag5
(g9
S'\\\x8f\xc2\xf5(\x1c4\xc0'
p51
tp52
Rp53
ag5
(g9
S'R\xb8\x1e\x85\xeb\x114\xc0'
p54
tp55
Rp56
ag5
(g9
S'33333\xf33\xc0'
p57
tp58
Rp59
ag5
(g9
S'\xd7\xa3p=\n\xd73\xc0'
p60
tp61
Rp62
ag5
(g9
S'\x00\x00\x00\x00\x00\xc03\xc0'
p63
tp64
Rp65
ag5
(g9
S'q=\n\xd7\xa3\xb03\xc0'
p66
tp67
Rp68
ag5
(g9
S'\x14\xaeG\xe1z\x943\xc0'
p69
tp70
Rp71
ag5
(g9
S'\xa4p=\n\xd7c3\xc0'
p72
tp73
Rp74
ag5
(g9
S'H\xe1z\x14\xaeG3\xc0'
p75
tp76
Rp77
ag5
(g9
S'\x14\xaeG\xe1z\x143\xc0'
p78
tp79
Rp80
ag5
(g9
S'\xaeG\xe1z\x14\xee2\xc0'
p81
tp82
Rp83
ag5
(g9
S'\x85\xebQ\xb8\x1e\xc52\xc0'
p84
tp85
Rp86
ag5
(g9
S'R\xb8\x1e\x85\xeb\x912\xc0'
p87
tp88
Rp89
ag5
(g9
S'\xcd\xcc\xcc\xcc\xccL2\xc0'
p90
tp91
Rp92
ag5
(g9
S'fffff&2\xc0'
p93
tp94
Rp95
ag5
(g9
S'\xb8\x1e\x85\xebQ\xf81\xc0'
p96
tp97
Rp98
ag5
(g9
S'\x8f\xc2\xf5(\\\xcf1\xc0'
p99
tp100
Rp101
ag5
(g9
S'33333\xb31\xc0'
p102
tp103
Rp104
ag5
(g9
S'\x14\xaeG\xe1z\x941\xc0'
p105
tp106
Rp107
ag5
(g9
S'\\\x8f\xc2\xf5(\\1\xc0'
p108
tp109
Rp110
ag5
(g9
S'\xecQ\xb8\x1e\x85+1\xc0'
p111
tp112
Rp113
ag5
(g9
S'\xb8\x1e\x85\xebQ\xf80\xc0'
p114
tp115
Rp116
asS'learning_rate_log'
p117
(lp118
F0.0001
aF0.0001
aF0.0001
aF0.0001
aF0.0001
aF0.0001
aF0.0001
aF0.0001
aF0.0001
aF0.0001
aF0.0001
aF0.0001
aF0.0001
aF0.0001
aF0.0001
aF0.0001
aF0.0001
aF0.0001
aF0.0001
aF0.0001
aF0.0001
aF0.0001
aF0.0001
aF0.0001
aF0.0001
aF0.0001
aF0.0001
aF0.0001
aF0.0001
aF0.0001
aF0.0001
aF0.0001
aF0.0001
aF0.0001
aF0.0001
asS'exploration_log'
p119
(lp120
F0.473
aF0.46849999999999997
aF0.46399999999999997
aF0.4595
aF0.455
aF0.4505
aF0.446
aF0.4415
aF0.437
aF0.4325
aF0.428
aF0.4235
aF0.419
aF0.4145
aF0.41
aF0.40549999999999997
aF0.401
aF0.39649999999999996
aF0.392
aF0.3875
aF0.383
aF0.3785
aF0.374
aF0.3695
aF0.365
aF0.3605
aF0.356
aF0.3515
aF0.347
aF0.3425
aF0.33799999999999997
aF0.3335
aF0.32899999999999996
aF0.3245
aF0.31999999999999995
asS'best_mean_log'
p121
(lp122
F-inf
aF-inf
aF-inf
aF-inf
ag5
(g9
S'\n\xd7\xa3p=J4\xc0'
p123
tp124
Rp125
ag5
(g9
S'\x85\xebQ\xb8\x1eE4\xc0'
p126
tp127
Rp128
ag128
ag5
(g9
S'\x00\x00\x00\x00\x00@4\xc0'
p129
tp130
Rp131
ag5
(g9
S'{\x14\xaeG\xe1:4\xc0'
p132
tp133
Rp134
ag5
(g9
S'q=\n\xd7\xa304\xc0'
p135
tp136
Rp137
ag5
(g9
S'\xa4p=\n\xd7#4\xc0'
p138
tp139
Rp140
ag5
(g9
S'\xe1z\x14\xaeG!4\xc0'
p141
tp142
Rp143
ag5
(g9
S'\\\x8f\xc2\xf5(\x1c4\xc0'
p144
tp145
Rp146
ag146
ag5
(g9
S'\x8f\xc2\xf5(\\\x0f4\xc0'
p147
tp148
Rp149
ag5
(g9
S'33333\xf33\xc0'
p150
tp151
Rp152
ag5
(g9
S'\xd7\xa3p=\n\xd73\xc0'
p153
tp154
Rp155
ag5
(g9
S'\x00\x00\x00\x00\x00\xc03\xc0'
p156
tp157
Rp158
ag5
(g9
S'q=\n\xd7\xa3\xb03\xc0'
p159
tp160
Rp161
ag5
(g9
S'\x14\xaeG\xe1z\x943\xc0'
p162
tp163
Rp164
ag5
(g9
S'\xa4p=\n\xd7c3\xc0'
p165
tp166
Rp167
ag5
(g9
S'H\xe1z\x14\xaeG3\xc0'
p168
tp169
Rp170
ag5
(g9
S'\x14\xaeG\xe1z\x143\xc0'
p171
tp172
Rp173
ag5
(g9
S'\xaeG\xe1z\x14\xee2\xc0'
p174
tp175
Rp176
ag5
(g9
S'\x85\xebQ\xb8\x1e\xc52\xc0'
p177
tp178
Rp179
ag5
(g9
S'R\xb8\x1e\x85\xeb\x912\xc0'
p180
tp181
Rp182
ag5
(g9
S'\xcd\xcc\xcc\xcc\xccL2\xc0'
p183
tp184
Rp185
ag5
(g9
S'fffff&2\xc0'
p186
tp187
Rp188
ag5
(g9
S'\xb8\x1e\x85\xebQ\xf81\xc0'
p189
tp190
Rp191
ag5
(g9
S'\x8f\xc2\xf5(\\\xcf1\xc0'
p192
tp193
Rp194
ag5
(g9
S'33333\xb31\xc0'
p195
tp196
Rp197
ag5
(g9
S'\x14\xaeG\xe1z\x941\xc0'
p198
tp199
Rp200
ag5
(g9
S'\\\x8f\xc2\xf5(\\1\xc0'
p201
tp202
Rp203
ag5
(g9
S'\xecQ\xb8\x1e\x85+1\xc0'
p204
tp205
Rp206
ag5
(g9
S'33333\xf30\xc0'
p207
tp208
Rp209
asS'episodes_log'
p210
(lp211
(lp212
F-21.0
aF-20.0
aF-19.0
aF-21.0
aF-20.0
aF-19.0
aF-21.0
aF-21.0
aF-21.0
aF-20.0
aF-21.0
aF-20.0
aF-19.0
aF-21.0
aF-20.0
aF-19.0
aF-19.0
aF-21.0
aF-20.0
aF-19.0
aF-20.0
aF-21.0
aF-21.0
aF-19.0
aF-19.0
aF-19.0
aF-20.0
aF-19.0
aF-21.0
aF-21.0
aF-20.0
aF-21.0
aF-21.0
aF-20.0
aF-21.0
aF-21.0
aF-21.0
aF-21.0
aF-20.0
aF-21.0
aF-21.0
aF-19.0
aF-21.0
aF-20.0
aF-20.0
aF-20.0
aF-21.0
aF-20.0
aF-20.0
aF-19.0
aF-21.0
aF-18.0
aF-21.0
aF-21.0
aF-21.0
aF-21.0
aF-21.0
aF-21.0
aF-21.0
aF-21.0
aF-21.0
aF-20.0
aF-20.0
aF-21.0
aF-20.0
aF-21.0
aF-21.0
aF-21.0
aF-20.0
aF-21.0
aF-21.0
aF-20.0
aF-20.0
aF-20.0
aF-21.0
aF-21.0
aF-21.0
aF-21.0
aF-20.0
aF-20.0
aF-20.0
aF-20.0
aF-21.0
aF-20.0
aF-21.0
aF-20.0
aF-20.0
aF-21.0
aF-21.0
aF-20.0
aF-20.0
aF-21.0
aF-20.0
aF-17.0
aF-20.0
aF-21.0
aF-21.0
aF-20.0
aF-20.0
aF-20.0
aF-18.0
aF-20.0
aF-20.0
aF-21.0
aF-20.0
aF-20.0
aF-21.0
aF-20.0
aF-19.0
aF-21.0
aF-19.0
aF-20.0
aF-21.0
aF-19.0
aF-21.0
aF-21.0
aF-21.0
aF-20.0
aF-21.0
aF-20.0
aF-20.0
aF-20.0
aF-20.0
aF-21.0
aF-20.0
aF-20.0
aF-20.0
aF-19.0
aF-20.0
aF-19.0
aF-20.0
aF-20.0
aF-20.0
aF-21.0
aF-20.0
aF-20.0
aF-21.0
aF-19.0
aF-18.0
aF-21.0
aF-21.0
aF-20.0
aF-20.0
aF-19.0
aF-20.0
aF-19.0
aF-21.0
aF-20.0
aF-20.0
aF-20.0
aF-20.0
aF-21.0
aF-19.0
aF-20.0
aF-21.0
aF-20.0
aF-20.0
aF-20.0
aF-20.0
aF-21.0
aF-21.0
aF-21.0
aF-18.0
aF-18.0
aF-21.0
aF-20.0
aF-21.0
aF-21.0
aF-21.0
aF-20.0
aF-20.0
aF-21.0
aF-21.0
aF-21.0
aF-19.0
aF-21.0
aF-21.0
aF-19.0
aF-21.0
aF-21.0
aF-21.0
aF-18.0
aF-20.0
aF-21.0
aF-20.0
aF-21.0
aF-20.0
aF-19.0
aF-20.0
aF-20.0
aF-20.0
aF-21.0
aF-21.0
aF-18.0
aF-20.0
aF-19.0
aF-21.0
aF-20.0
aF-20.0
aF-20.0
aF-19.0
aF-20.0
aF-18.0
aF-20.0
aF-19.0
aF-21.0
aF-18.0
aF-20.0
aF-20.0
aF-19.0
aF-18.0
aF-18.0
aF-21.0
aF-18.0
aF-18.0
aF-20.0
aF-19.0
aF-20.0
aF-20.0
aF-19.0
aF-20.0
aF-20.0
aF-20.0
aF-18.0
aF-18.0
aF-18.0
aF-18.0
aF-19.0
aF-20.0
aF-19.0
aF-21.0
aF-17.0
aF-18.0
aF-19.0
aF-17.0
aF-20.0
aF-18.0
aF-19.0
aF-21.0
aF-20.0
aF-19.0
aF-20.0
aF-19.0
aF-17.0
aF-20.0
aF-20.0
aF-19.0
aF-16.0
aF-18.0
aF-19.0
aF-17.0
aF-20.0
aF-17.0
aF-16.0
aF-19.0
aF-18.0
aF-16.0
aF-19.0
aF-17.0
aF-20.0
aF-16.0
aF-16.0
aF-19.0
aF-19.0
aF-19.0
aF-17.0
aF-18.0
aF-18.0
aF-16.0
aF-16.0
aF-20.0
aF-19.0
aF-20.0
aF-18.0
aF-18.0
aF-18.0
aF-17.0
aF-16.0
aF-19.0
aF-15.0
aF-18.0
aF-19.0
aF-18.0
aF-17.0
aF-17.0
aF-15.0
aF-16.0
aF-14.0
aF-18.0
aF-10.0
aF-16.0
aF-16.0
aF-16.0
aF-15.0
aF-17.0
aF-16.0
aF-20.0
aF-15.0
aF-17.0
aF-17.0
aF-15.0
aF-12.0
aF-18.0
aF-17.0
aF-18.0
aF-16.0
aF-18.0
aF-13.0
aF-17.0
aF-15.0
aF-17.0
aF-18.0
aF-16.0
aF-17.0
aF-11.0
aF-21.0
aF-15.0
aF-18.0
aF-14.0
aF-13.0
aF-17.0
aF-13.0
aF-14.0
aF-18.0
aF-10.0
aF-18.0
aF-13.0
aF-15.0
aF-17.0
aF-13.0
aF-12.0
aF-19.0
aag212
ag212
ag212
ag212
ag212
ag212
ag212
ag212
ag212
ag212
ag212
ag212
ag212
ag212
ag212
ag212
ag212
ag212
ag212
ag212
ag212
ag212
ag212
ag212
ag212
ag212
ag212
ag212
ag212
ag212
ag212
ag212
ag212
ag212
as.