(dp0
S't_log'
p1
(lp2
I60000
aI70000
aI80000
aI90000
aI100000
aI110000
aI120000
aI130000
aI140000
aI150000
aI160000
aI170000
aI180000
aI190000
aI200000
aI210000
aI220000
aI230000
aI240000
aI250000
aI260000
aI270000
aI280000
aI290000
aI300000
aI310000
aI320000
aI330000
aI340000
aI350000
aI360000
aI370000
aI380000
aI390000
aI400000
aI410000
aI420000
aI430000
aI440000
aI450000
aI460000
aI470000
aI480000
aI490000
aI500000
aI510000
aI520000
aI530000
aI540000
aI550000
aI560000
aI570000
aI580000
aI590000
aI600000
aI610000
aI620000
aI630000
aI640000
aI650000
aI660000
aI670000
aI680000
aI690000
aI700000
aI710000
aI720000
aI730000
aI740000
aI750000
aI760000
aI770000
aI780000
aI790000
aI800000
aI810000
aI820000
aI830000
aI840000
aI850000
aI860000
aI870000
aI880000
aI890000
aI900000
aI910000
aI920000
aI930000
aI940000
aI950000
aI960000
aI970000
aI980000
aI990000
aI1000000
aI1010000
aI1020000
aI1030000
aI1040000
aI1050000
aI1060000
aI1070000
aI1080000
aI1090000
aI1100000
aI1110000
aI1120000
aI1130000
aI1140000
aI1150000
aI1160000
aI1170000
aI1180000
aI1190000
aI1200000
aI1210000
aI1220000
aI1230000
aI1240000
aI1250000
aI1260000
aI1270000
aI1280000
aI1290000
aI1300000
aI1310000
aI1320000
aI1330000
aI1340000
aI1350000
aI1360000
aI1370000
aI1380000
aI1390000
aI1400000
aI1410000
aI1420000
aI1430000
aI1440000
aI1450000
aI1460000
aI1470000
aI1480000
aI1490000
aI1500000
aI1510000
aI1520000
aI1530000
aI1540000
aI1550000
aI1560000
aI1570000
aI1580000
aI1590000
aI1600000
asS'mean_reward_log'
p3
(lp4
cnumpy.core.multiarray
scalar
p5
(cnumpy
dtype
p6
(S'f8'
p7
I0
I1
tp8
Rp9
(I3
S'<'
p10
NNNI-1
I-1
I0
tp11
bS'\xad\xd4J\xad\xd4J4\xc0'
p12
tp13
Rp14
ag5
(g9
S'y\r\xe55\x94W4\xc0'
p15
tp16
Rp17
ag5
(g9
S'j\x84\xe5\x9eFX4\xc0'
p18
tp19
Rp20
ag5
(g9
S'\xe0\x8b\xab\x1ftT4\xc0'
p21
tp22
Rp23
ag5
(g9
S'\xcd\xcc\xcc\xcc\xccL4\xc0'
p24
tp25
Rp26
ag5
(g9
S'R\xb8\x1e\x85\xebQ4\xc0'
p27
tp28
Rp29
ag5
(g9
S'R\xb8\x1e\x85\xebQ4\xc0'
p30
tp31
Rp32
ag5
(g9
S'\x00\x00\x00\x00\x00@4\xc0'
p33
tp34
Rp35
ag5
(g9
S'{\x14\xaeG\xe1:4\xc0'
p36
tp37
Rp38
ag5
(g9
S'q=\n\xd7\xa304\xc0'
p39
tp40
Rp41
ag5
(g9
S'\xa4p=\n\xd7#4\xc0'
p42
tp43
Rp44
ag5
(g9
S')\\\x8f\xc2\xf5(4\xc0'
p45
tp46
Rp47
ag5
(g9
S'\\\x8f\xc2\xf5(\x1c4\xc0'
p48
tp49
Rp50
ag5
(g9
S'\\\x8f\xc2\xf5(\x1c4\xc0'
p51
tp52
Rp53
ag5
(g9
S'R\xb8\x1e\x85\xeb\x114\xc0'
p54
tp55
Rp56
ag5
(g9
S'33333\xf33\xc0'
p57
tp58
Rp59
ag5
(g9
S'\xd7\xa3p=\n\xd73\xc0'
p60
tp61
Rp62
ag5
(g9
S'\x00\x00\x00\x00\x00\xc03\xc0'
p63
tp64
Rp65
ag5
(g9
S'q=\n\xd7\xa3\xb03\xc0'
p66
tp67
Rp68
ag5
(g9
S'\x14\xaeG\xe1z\x943\xc0'
p69
tp70
Rp71
ag5
(g9
S'\xa4p=\n\xd7c3\xc0'
p72
tp73
Rp74
ag5
(g9
S'H\xe1z\x14\xaeG3\xc0'
p75
tp76
Rp77
ag5
(g9
S'\x14\xaeG\xe1z\x143\xc0'
p78
tp79
Rp80
ag5
(g9
S'\xaeG\xe1z\x14\xee2\xc0'
p81
tp82
Rp83
ag5
(g9
S'\x85\xebQ\xb8\x1e\xc52\xc0'
p84
tp85
Rp86
ag5
(g9
S'R\xb8\x1e\x85\xeb\x912\xc0'
p87
tp88
Rp89
ag5
(g9
S'\xcd\xcc\xcc\xcc\xccL2\xc0'
p90
tp91
Rp92
ag5
(g9
S'fffff&2\xc0'
p93
tp94
Rp95
ag5
(g9
S'\xb8\x1e\x85\xebQ\xf81\xc0'
p96
tp97
Rp98
ag5
(g9
S'\x8f\xc2\xf5(\\\xcf1\xc0'
p99
tp100
Rp101
ag5
(g9
S'33333\xb31\xc0'
p102
tp103
Rp104
ag5
(g9
S'\x14\xaeG\xe1z\x941\xc0'
p105
tp106
Rp107
ag5
(g9
S'\\\x8f\xc2\xf5(\\1\xc0'
p108
tp109
Rp110
ag5
(g9
S'\xecQ\xb8\x1e\x85+1\xc0'
p111
tp112
Rp113
ag5
(g9
S'\xb8\x1e\x85\xebQ\xf80\xc0'
p114
tp115
Rp116
ag5
(g9
S'\xd7\xa3p=\n\xd70\xc0'
p117
tp118
Rp119
ag5
(g9
S'q=\n\xd7\xa3\xb00\xc0'
p120
tp121
Rp122
ag5
(g9
S'{\x14\xaeG\xe1z0\xc0'
p123
tp124
Rp125
ag5
(g9
S'\n\xd7\xa3p=J0\xc0'
p126
tp127
Rp128
ag5
(g9
S'\xa4p=\n\xd7#0\xc0'
p129
tp130
Rp131
ag5
(g9
S'\xcd\xcc\xcc\xcc\xcc\x0c0\xc0'
p132
tp133
Rp134
ag5
(g9
S')\\\x8f\xc2\xf5\xa8/\xc0'
p135
tp136
Rp137
ag5
(g9
S'\x85\xebQ\xb8\x1e\x85/\xc0'
p138
tp139
Rp140
ag5
(g9
S'333333/\xc0'
p141
tp142
Rp143
ag5
(g9
S'\xe1z\x14\xaeG\xe1.\xc0'
p144
tp145
Rp146
ag5
(g9
S'\x9a\x99\x99\x99\x99\x99.\xc0'
p147
tp148
Rp149
ag5
(g9
S'\x85\xebQ\xb8\x1e\x85.\xc0'
p150
tp151
Rp152
ag5
(g9
S'\xe1z\x14\xaeGa.\xc0'
p153
tp154
Rp155
ag5
(g9
S'\x85\xebQ\xb8\x1e\x05.\xc0'
p156
tp157
Rp158
ag5
(g9
S'\xc3\xf5(\\\x8f\xc2-\xc0'
p159
tp160
Rp161
ag5
(g9
S'\x14\xaeG\xe1z\x94-\xc0'
p162
tp163
Rp164
ag5
(g9
S'\xaeG\xe1z\x14.-\xc0'
p165
tp166
Rp167
ag5
(g9
S'\x00\x00\x00\x00\x00\x00-\xc0'
p168
tp169
Rp170
ag5
(g9
S'\xe1z\x14\xaeG\xe1,\xc0'
p171
tp172
Rp173
ag5
(g9
S'q=\n\xd7\xa3\xf0,\xc0'
p174
tp175
Rp176
ag5
(g9
S'\x14\xaeG\xe1z\x94,\xc0'
p177
tp178
Rp179
ag5
(g9
S'q=\n\xd7\xa3p,\xc0'
p180
tp181
Rp182
ag5
(g9
S'fffff\xe6+\xc0'
p183
tp184
Rp185
ag5
(g9
S'\\\x8f\xc2\xf5(\\+\xc0'
p186
tp187
Rp188
ag5
(g9
S'\n\xd7\xa3p=\n+\xc0'
p189
tp190
Rp191
ag5
(g9
S'q=\n\xd7\xa3\xf0*\xc0'
p192
tp193
Rp194
ag5
(g9
S'\x85\xebQ\xb8\x1e\x85*\xc0'
p195
tp196
Rp197
ag5
(g9
S'\xd7\xa3p=\nW*\xc0'
p198
tp199
Rp200
ag5
(g9
S'H\xe1z\x14\xaeG*\xc0'
p201
tp202
Rp203
ag5
(g9
S'\xa4p=\n\xd7\xa3)\xc0'
p204
tp205
Rp206
ag5
(g9
S'\xd7\xa3p=\nW)\xc0'
p207
tp208
Rp209
ag5
(g9
S'\x9a\x99\x99\x99\x99\x19)\xc0'
p210
tp211
Rp212
ag5
(g9
S'{\x14\xaeG\xe1\xfa(\xc0'
p213
tp214
Rp215
ag5
(g9
S'ffffff(\xc0'
p216
tp217
Rp218
ag5
(g9
S')\\\x8f\xc2\xf5((\xc0'
p219
tp220
Rp221
ag5
(g9
S"\xecQ\xb8\x1e\x85\xeb'\xc0"
p222
tp223
Rp224
ag5
(g9
S"q=\n\xd7\xa3p'\xc0"
p225
tp226
Rp227
ag5
(g9
S"\x85\xebQ\xb8\x1e\x05'\xc0"
p228
tp229
Rp230
ag5
(g9
S'\x9a\x99\x99\x99\x99\x99&\xc0'
p231
tp232
Rp233
ag5
(g9
S'\xecQ\xb8\x1e\x85k&\xc0'
p234
tp235
Rp236
ag5
(g9
S'\x00\x00\x00\x00\x00\x00&\xc0'
p237
tp238
Rp239
ag5
(g9
S'\xa4p=\n\xd7\xa3%\xc0'
p240
tp241
Rp242
ag5
(g9
S'\x14\xaeG\xe1z\x14%\xc0'
p243
tp244
Rp245
ag5
(g9
S'{\x14\xaeG\xe1z$\xc0'
p246
tp247
Rp248
ag5
(g9
S'\xb8\x1e\x85\xebQ8$\xc0'
p249
tp250
Rp251
ag5
(g9
S'ffffff#\xc0'
p252
tp253
Rp254
ag5
(g9
S'\n\xd7\xa3p=\n#\xc0'
p255
tp256
Rp257
ag5
(g9
S'\x1f\x85\xebQ\xb8\x9e"\xc0'
p258
tp259
Rp260
ag5
(g9
S'H\xe1z\x14\xae\xc7!\xc0'
p261
tp262
Rp263
ag5
(g9
S'\xd7\xa3p=\nW!\xc0'
p264
tp265
Rp266
ag5
(g9
S'q=\n\xd7\xa3p \xc0'
p267
tp268
Rp269
ag5
(g9
S'\\\x8f\xc2\xf5(\\\x1f\xc0'
p270
tp271
Rp272
ag5
(g9
S'\x14\xaeG\xe1z\x14\x1e\xc0'
p273
tp274
Rp275
ag5
(g9
S'\x9a\x99\x99\x99\x99\x99\x1c\xc0'
p276
tp277
Rp278
ag5
(g9
S'\x1f\x85\xebQ\xb8\x1e\x1b\xc0'
p279
tp280
Rp281
ag5
(g9
S'\xd7\xa3p=\n\xd7\x19\xc0'
p282
tp283
Rp284
ag5
(g9
S')\\\x8f\xc2\xf5(\x18\xc0'
p285
tp286
Rp287
ag5
(g9
S'\x8f\xc2\xf5(\\\x8f\x17\xc0'
p288
tp289
Rp290
ag5
(g9
S'=\n\xd7\xa3p=\x17\xc0'
p291
tp292
Rp293
ag5
(g9
S'H\xe1z\x14\xaeG\x16\xc0'
p294
tp295
Rp296
ag5
(g9
S'\xc3\xf5(\\\x8f\xc2\x14\xc0'
p297
tp298
Rp299
ag5
(g9
S'\x9a\x99\x99\x99\x99\x99\x13\xc0'
p300
tp301
Rp302
ag5
(g9
S'333333\x12\xc0'
p303
tp304
Rp305
ag5
(g9
S'\xaeG\xe1z\x14\xae\x10\xc0'
p306
tp307
Rp308
ag5
(g9
S'\xcd\xcc\xcc\xcc\xcc\xcc\x0e\xc0'
p309
tp310
Rp311
ag5
(g9
S'\x1f\x85\xebQ\xb8\x1e\x0b\xc0'
p312
tp313
Rp314
ag5
(g9
S'\xcd\xcc\xcc\xcc\xcc\xcc\x08\xc0'
p315
tp316
Rp317
ag5
(g9
S'\xf6(\\\x8f\xc2\xf5\x06\xc0'
p318
tp319
Rp320
ag5
(g9
S'\x00\x00\x00\x00\x00\x00\x04\xc0'
p321
tp322
Rp323
ag5
(g9
S'\xb8\x1e\x85\xebQ\xb8\x00\xc0'
p324
tp325
Rp326
ag5
(g9
S'\x8f\xc2\xf5(\\\x8f\xfa\xbf'
p327
tp328
Rp329
ag5
(g9
S'333333\xf3\xbf'
p330
tp331
Rp332
ag5
(g9
S'=\n\xd7\xa3p=\xea\xbf'
p333
tp334
Rp335
ag5
(g9
S'\xf6(\\\x8f\xc2\xf5\xd8\xbf'
p336
tp337
Rp338
ag5
(g9
S'q=\n\xd7\xa3p\xcd?'
p339
tp340
Rp341
ag5
(g9
S'q=\n\xd7\xa3p\xe5?'
p342
tp343
Rp344
ag5
(g9
S'\xecQ\xb8\x1e\x85\xeb\xf1?'
p345
tp346
Rp347
ag5
(g9
S'333333\xfb?'
p348
tp349
Rp350
ag5
(g9
S'\xecQ\xb8\x1e\x85\xeb\x01@'
p351
tp352
Rp353
ag5
(g9
S'q=\n\xd7\xa3p\x05@'
p354
tp355
Rp356
ag5
(g9
S')\\\x8f\xc2\xf5(\n@'
p357
tp358
Rp359
ag5
(g9
S'H\xe1z\x14\xaeG\r@'
p360
tp361
Rp362
ag5
(g9
S'\x00\x00\x00\x00\x00\x00\x10@'
p363
tp364
Rp365
ag5
(g9
S'H\xe1z\x14\xaeG\x11@'
p366
tp367
Rp368
ag5
(g9
S'\x00\x00\x00\x00\x00\x00\x13@'
p369
tp370
Rp371
ag5
(g9
S'\n\xd7\xa3p=\n\x15@'
p372
tp373
Rp374
ag5
(g9
S'\xa4p=\n\xd7\xa3\x15@'
p375
tp376
Rp377
ag5
(g9
S'\x1f\x85\xebQ\xb8\x1e\x16@'
p378
tp379
Rp380
ag5
(g9
S'\x8f\xc2\xf5(\\\x8f\x16@'
p381
tp382
Rp383
ag5
(g9
S'\xd7\xa3p=\n\xd7\x17@'
p384
tp385
Rp386
ag5
(g9
S'\\\x8f\xc2\xf5(\\\x18@'
p387
tp388
Rp389
ag5
(g9
S'\xe1z\x14\xaeG\xe1\x18@'
p390
tp391
Rp392
ag5
(g9
S'\xecQ\xb8\x1e\x85\xeb\x19@'
p393
tp394
Rp395
ag5
(g9
S'\xf6(\\\x8f\xc2\xf5\x1b@'
p396
tp397
Rp398
ag5
(g9
S'\\\x8f\xc2\xf5(\\\x1d@'
p399
tp400
Rp401
ag5
(g9
S'\xe1z\x14\xaeG\xe1\x1e@'
p402
tp403
Rp404
ag5
(g9
S'\xc3\xf5(\\\x8f\xc2\x1f@'
p405
tp406
Rp407
ag5
(g9
S'\\\x8f\xc2\xf5(\\ @'
p408
tp409
Rp410
ag5
(g9
S'q=\n\xd7\xa3\xf0 @'
p411
tp412
Rp413
ag5
(g9
S'\\\x8f\xc2\xf5(\\!@'
p414
tp415
Rp416
ag5
(g9
S'\x9a\x99\x99\x99\x99\x19"@'
p417
tp418
Rp419
ag5
(g9
S'\x14\xaeG\xe1z\x94"@'
p420
tp421
Rp422
ag5
(g9
S'\xecQ\xb8\x1e\x85\xeb"@'
p423
tp424
Rp425
ag5
(g9
S')\\\x8f\xc2\xf5\xa8#@'
p426
tp427
Rp428
ag5
(g9
S'333333$@'
p429
tp430
Rp431
ag5
(g9
S'\xb8\x1e\x85\xebQ\xb8$@'
p432
tp433
Rp434
ag5
(g9
S'333333%@'
p435
tp436
Rp437
ag5
(g9
S'\x85\xebQ\xb8\x1e\x85%@'
p438
tp439
Rp440
ag5
(g9
S'\xd7\xa3p=\n\xd7%@'
p441
tp442
Rp443
ag5
(g9
S'R\xb8\x1e\x85\xeb\xd1%@'
p444
tp445
Rp446
ag5
(g9
S'ffffff&@'
p447
tp448
Rp449
ag5
(g9
S"\x00\x00\x00\x00\x00\x00'@"
p450
tp451
Rp452
ag5
(g9
S"\xe1z\x14\xaeG\xe1'@"
p453
tp454
Rp455
ag5
(g9
S'\xcd\xcc\xcc\xcc\xcc\xcc(@'
p456
tp457
Rp458
ag5
(g9
S'R\xb8\x1e\x85\xeb\xd1)@'
p459
tp460
Rp461
ag5
(g9
S'\xecQ\xb8\x1e\x85k*@'
p462
tp463
Rp464
ag5
(g9
S'\xd7\xa3p=\nW+@'
p465
tp466
Rp467
ag5
(g9
S'\x1f\x85\xebQ\xb8\x1e,@'
p468
tp469
Rp470
ag5
(g9
S'{\x14\xaeG\xe1z,@'
p471
tp472
Rp473
ag5
(g9
S'\x8f\xc2\xf5(\\\x0f-@'
p474
tp475
Rp476
asS'learning_rate_log'
p477
(lp478
F0.0001
aF0.0001
aF0.0001
aF0.0001
aF0.0001
aF0.0001
aF0.0001
aF0.0001
aF0.0001
aF0.0001
aF0.0001
aF0.0001
aF0.0001
aF0.0001
aF0.0001
aF0.0001
aF0.0001
aF0.0001
aF0.0001
aF0.0001
aF0.0001
aF0.0001
aF0.0001
aF0.0001
aF0.0001
aF0.0001
aF0.0001
aF0.0001
aF0.0001
aF0.0001
aF0.0001
aF0.0001
aF0.0001
aF0.0001
aF0.0001
aF0.0001
aF0.0001
aF0.0001
aF0.0001
aF0.0001
aF0.0001
aF0.0001
aF0.0001
aF0.0001
aF0.0001
aF0.0001
aF0.0001
aF0.0001
aF0.0001
aF0.0001
aF0.0001
aF0.0001
aF0.0001
aF0.0001
aF0.0001
aF0.0001
aF0.0001
aF0.0001
aF0.0001
aF0.0001
aF0.0001
aF0.0001
aF0.0001
aF0.0001
aF0.0001
aF0.0001
aF0.0001
aF0.0001
aF0.0001
aF0.0001
aF0.0001
aF0.0001
aF0.0001
aF0.0001
aF0.0001
aF0.0001
aF0.0001
aF0.0001
aF0.0001
aF0.0001
aF0.0001
aF0.0001
aF0.0001
aF0.0001
aF0.0001
aF0.0001
aF0.0001
aF0.0001
aF0.0001
aF0.0001
aF0.0001
aF0.0001
aF0.0001
aF0.0001
aF0.0001
aF9.9875e-05
aF9.975e-05
aF9.962500000000001e-05
aF9.95e-05
aF9.9375e-05
aF9.925e-05
aF9.912500000000001e-05
aF9.900000000000001e-05
aF9.8875e-05
aF9.875e-05
aF9.8625e-05
aF9.850000000000001e-05
aF9.8375e-05
aF9.825e-05
aF9.8125e-05
aF9.800000000000001e-05
aF9.787500000000001e-05
aF9.775e-05
aF9.7625e-05
aF9.75e-05
aF9.737500000000001e-05
aF9.725e-05
aF9.7125e-05
aF9.7e-05
aF9.687500000000001e-05
aF9.675000000000001e-05
aF9.6625e-05
aF9.65e-05
aF9.6375e-05
aF9.625000000000001e-05
aF9.6125e-05
aF9.6e-05
aF9.5875e-05
aF9.575000000000001e-05
aF9.562500000000001e-05
aF9.55e-05
aF9.5375e-05
aF9.525000000000001e-05
aF9.512500000000001e-05
aF9.5e-05
aF9.4875e-05
aF9.475e-05
aF9.462500000000001e-05
aF9.45e-05
aF9.4375e-05
aF9.425e-05
aF9.412500000000001e-05
aF9.400000000000001e-05
aF9.3875e-05
aF9.375e-05
aF9.3625e-05
aF9.350000000000001e-05
aF9.3375e-05
aF9.325e-05
aF9.3125e-05
aF9.300000000000001e-05
aF9.287500000000001e-05
aF9.275e-05
aF9.2625e-05
aF9.25e-05
asS'exploration_log'
p479
(lp480
F0.473
aF0.46849999999999997
aF0.46399999999999997
aF0.4595
aF0.455
aF0.4505
aF0.446
aF0.4415
aF0.437
aF0.4325
aF0.428
aF0.4235
aF0.419
aF0.4145
aF0.41
aF0.40549999999999997
aF0.401
aF0.39649999999999996
aF0.392
aF0.3875
aF0.383
aF0.3785
aF0.374
aF0.3695
aF0.365
aF0.3605
aF0.356
aF0.3515
aF0.347
aF0.3425
aF0.33799999999999997
aF0.3335
aF0.32899999999999996
aF0.3245
aF0.31999999999999995
aF0.3155
aF0.311
aF0.3065
aF0.302
aF0.2975
aF0.293
aF0.2885
aF0.28400000000000003
aF0.27949999999999997
aF0.275
aF0.27049999999999996
aF0.266
aF0.26149999999999995
aF0.257
aF0.25249999999999995
aF0.24799999999999994
aF0.2435
aF0.239
aF0.2345
aF0.22999999999999998
aF0.22549999999999998
aF0.22099999999999997
aF0.21649999999999997
aF0.21199999999999997
aF0.20749999999999996
aF0.20299999999999996
aF0.19849999999999995
aF0.19399999999999995
aF0.1895
aF0.185
aF0.1805
aF0.176
aF0.17149999999999999
aF0.16699999999999998
aF0.16249999999999998
aF0.15799999999999997
aF0.15349999999999997
aF0.14899999999999997
aF0.14449999999999996
aF0.13999999999999996
aF0.13549999999999995
aF0.131
aF0.1265
aF0.122
aF0.1175
aF0.11299999999999999
aF0.10849999999999999
aF0.10399999999999998
aF0.09949999999999998
aF0.09499999999999997
aF0.09049999999999997
aF0.08599999999999997
aF0.08149999999999996
aF0.07700000000000001
aF0.07250000000000001
aF0.068
aF0.0635
aF0.059
aF0.05449999999999999
aF0.05
aF0.0498875
aF0.049775
aF0.049662500000000005
aF0.049550000000000004
aF0.0494375
aF0.049325
aF0.0492125
aF0.049100000000000005
aF0.0489875
aF0.048875
aF0.0487625
aF0.048650000000000006
aF0.048537500000000004
aF0.048425
aF0.0483125
aF0.0482
aF0.048087500000000005
aF0.047975000000000004
aF0.0478625
aF0.04775
aF0.0476375
aF0.047525000000000005
aF0.0474125
aF0.0473
aF0.0471875
aF0.047075000000000006
aF0.046962500000000004
aF0.04685
aF0.0467375
aF0.046625
aF0.046512500000000005
aF0.046400000000000004
aF0.0462875
aF0.046175
aF0.046062500000000006
aF0.045950000000000005
aF0.0458375
aF0.045725
aF0.0456125
aF0.0455
aF0.045387500000000004
aF0.045275
aF0.0451625
aF0.04505
aF0.044937500000000005
aF0.044825000000000004
aF0.0447125
aF0.0446
aF0.0444875
aF0.044375000000000005
aF0.0442625
aF0.04415
aF0.0440375
aF0.043925
aF0.043812500000000004
aF0.0437
aF0.0435875
aF0.043475
aF0.043362500000000005
aF0.043250000000000004
asS'best_mean_log'
p481
(lp482
F-inf
aF-inf
aF-inf
aF-inf
ag5
(g9
S'\n\xd7\xa3p=J4\xc0'
p483
tp484
Rp485
ag5
(g9
S'\x85\xebQ\xb8\x1eE4\xc0'
p486
tp487
Rp488
ag488
ag5
(g9
S'\x00\x00\x00\x00\x00@4\xc0'
p489
tp490
Rp491
ag5
(g9
S'{\x14\xaeG\xe1:4\xc0'
p492
tp493
Rp494
ag5
(g9
S'q=\n\xd7\xa304\xc0'
p495
tp496
Rp497
ag5
(g9
S'\xa4p=\n\xd7#4\xc0'
p498
tp499
Rp500
ag5
(g9
S'\xe1z\x14\xaeG!4\xc0'
p501
tp502
Rp503
ag5
(g9
S'\\\x8f\xc2\xf5(\x1c4\xc0'
p504
tp505
Rp506
ag506
ag5
(g9
S'\x8f\xc2\xf5(\\\x0f4\xc0'
p507
tp508
Rp509
ag5
(g9
S'33333\xf33\xc0'
p510
tp511
Rp512
ag5
(g9
S'\xd7\xa3p=\n\xd73\xc0'
p513
tp514
Rp515
ag5
(g9
S'\x00\x00\x00\x00\x00\xc03\xc0'
p516
tp517
Rp518
ag5
(g9
S'q=\n\xd7\xa3\xb03\xc0'
p519
tp520
Rp521
ag5
(g9
S'\x14\xaeG\xe1z\x943\xc0'
p522
tp523
Rp524
ag5
(g9
S'\xa4p=\n\xd7c3\xc0'
p525
tp526
Rp527
ag5
(g9
S'H\xe1z\x14\xaeG3\xc0'
p528
tp529
Rp530
ag5
(g9
S'\x14\xaeG\xe1z\x143\xc0'
p531
tp532
Rp533
ag5
(g9
S'\xaeG\xe1z\x14\xee2\xc0'
p534
tp535
Rp536
ag5
(g9
S'\x85\xebQ\xb8\x1e\xc52\xc0'
p537
tp538
Rp539
ag5
(g9
S'R\xb8\x1e\x85\xeb\x912\xc0'
p540
tp541
Rp542
ag5
(g9
S'\xcd\xcc\xcc\xcc\xccL2\xc0'
p543
tp544
Rp545
ag5
(g9
S'fffff&2\xc0'
p546
tp547
Rp548
ag5
(g9
S'\xb8\x1e\x85\xebQ\xf81\xc0'
p549
tp550
Rp551
ag5
(g9
S'\x8f\xc2\xf5(\\\xcf1\xc0'
p552
tp553
Rp554
ag5
(g9
S'33333\xb31\xc0'
p555
tp556
Rp557
ag5
(g9
S'\x14\xaeG\xe1z\x941\xc0'
p558
tp559
Rp560
ag5
(g9
S'\\\x8f\xc2\xf5(\\1\xc0'
p561
tp562
Rp563
ag5
(g9
S'\xecQ\xb8\x1e\x85+1\xc0'
p564
tp565
Rp566
ag5
(g9
S'33333\xf30\xc0'
p567
tp568
Rp569
ag5
(g9
S'\xd7\xa3p=\n\xd70\xc0'
p570
tp571
Rp572
ag5
(g9
S'q=\n\xd7\xa3\xb00\xc0'
p573
tp574
Rp575
ag5
(g9
S'{\x14\xaeG\xe1z0\xc0'
p576
tp577
Rp578
ag5
(g9
S'\n\xd7\xa3p=J0\xc0'
p579
tp580
Rp581
ag5
(g9
S'\xa4p=\n\xd7#0\xc0'
p582
tp583
Rp584
ag5
(g9
S'\x85\xebQ\xb8\x1e\x050\xc0'
p585
tp586
Rp587
ag5
(g9
S')\\\x8f\xc2\xf5\xa8/\xc0'
p588
tp589
Rp590
ag5
(g9
S'\x85\xebQ\xb8\x1e\x85/\xc0'
p591
tp592
Rp593
ag5
(g9
S'333333/\xc0'
p594
tp595
Rp596
ag5
(g9
S'\xe1z\x14\xaeG\xe1.\xc0'
p597
tp598
Rp599
ag5
(g9
S'\x9a\x99\x99\x99\x99\x99.\xc0'
p600
tp601
Rp602
ag5
(g9
S'\x85\xebQ\xb8\x1e\x85.\xc0'
p603
tp604
Rp605
ag5
(g9
S'\xe1z\x14\xaeGa.\xc0'
p606
tp607
Rp608
ag5
(g9
S'\x85\xebQ\xb8\x1e\x05.\xc0'
p609
tp610
Rp611
ag5
(g9
S'\xc3\xf5(\\\x8f\xc2-\xc0'
p612
tp613
Rp614
ag5
(g9
S'\x14\xaeG\xe1z\x94-\xc0'
p615
tp616
Rp617
ag5
(g9
S'\xaeG\xe1z\x14.-\xc0'
p618
tp619
Rp620
ag5
(g9
S'\x00\x00\x00\x00\x00\x00-\xc0'
p621
tp622
Rp623
ag5
(g9
S'\xe1z\x14\xaeG\xe1,\xc0'
p624
tp625
Rp626
ag626
ag5
(g9
S'\x14\xaeG\xe1z\x94,\xc0'
p627
tp628
Rp629
ag5
(g9
S'q=\n\xd7\xa3p,\xc0'
p630
tp631
Rp632
ag5
(g9
S'fffff\xe6+\xc0'
p633
tp634
Rp635
ag5
(g9
S'\\\x8f\xc2\xf5(\\+\xc0'
p636
tp637
Rp638
ag5
(g9
S'\x00\x00\x00\x00\x00\x00+\xc0'
p639
tp640
Rp641
ag5
(g9
S'fffff\xe6*\xc0'
p642
tp643
Rp644
ag5
(g9
S'\x85\xebQ\xb8\x1e\x85*\xc0'
p645
tp646
Rp647
ag5
(g9
S'\xd7\xa3p=\nW*\xc0'
p648
tp649
Rp650
ag5
(g9
S'H\xe1z\x14\xaeG*\xc0'
p651
tp652
Rp653
ag5
(g9
S'\xa4p=\n\xd7\xa3)\xc0'
p654
tp655
Rp656
ag5
(g9
S'\xcd\xcc\xcc\xcc\xccL)\xc0'
p657
tp658
Rp659
ag5
(g9
S'\x9a\x99\x99\x99\x99\x19)\xc0'
p660
tp661
Rp662
ag5
(g9
S'{\x14\xaeG\xe1\xfa(\xc0'
p663
tp664
Rp665
ag5
(g9
S'ffffff(\xc0'
p666
tp667
Rp668
ag5
(g9
S')\\\x8f\xc2\xf5((\xc0'
p669
tp670
Rp671
ag5
(g9
S"\xecQ\xb8\x1e\x85\xeb'\xc0"
p672
tp673
Rp674
ag5
(g9
S"q=\n\xd7\xa3p'\xc0"
p675
tp676
Rp677
ag5
(g9
S"\x85\xebQ\xb8\x1e\x05'\xc0"
p678
tp679
Rp680
ag5
(g9
S'\x9a\x99\x99\x99\x99\x99&\xc0'
p681
tp682
Rp683
ag5
(g9
S'\xecQ\xb8\x1e\x85k&\xc0'
p684
tp685
Rp686
ag5
(g9
S'\x00\x00\x00\x00\x00\x00&\xc0'
p687
tp688
Rp689
ag5
(g9
S'\xa4p=\n\xd7\xa3%\xc0'
p690
tp691
Rp692
ag5
(g9
S'\x14\xaeG\xe1z\x14%\xc0'
p693
tp694
Rp695
ag5
(g9
S'{\x14\xaeG\xe1z$\xc0'
p696
tp697
Rp698
ag5
(g9
S'\xaeG\xe1z\x14.$\xc0'
p699
tp700
Rp701
ag5
(g9
S'ffffff#\xc0'
p702
tp703
Rp704
ag5
(g9
S'\xf6(\\\x8f\xc2\xf5"\xc0'
p705
tp706
Rp707
ag5
(g9
S'\x1f\x85\xebQ\xb8\x9e"\xc0'
p708
tp709
Rp710
ag5
(g9
S'H\xe1z\x14\xae\xc7!\xc0'
p711
tp712
Rp713
ag5
(g9
S'\xd7\xa3p=\nW!\xc0'
p714
tp715
Rp716
ag5
(g9
S'q=\n\xd7\xa3p \xc0'
p717
tp718
Rp719
ag5
(g9
S'\\\x8f\xc2\xf5(\\\x1f\xc0'
p720
tp721
Rp722
ag5
(g9
S'\x14\xaeG\xe1z\x14\x1e\xc0'
p723
tp724
Rp725
ag5
(g9
S'\x9a\x99\x99\x99\x99\x99\x1c\xc0'
p726
tp727
Rp728
ag5
(g9
S'\x1f\x85\xebQ\xb8\x1e\x1b\xc0'
p729
tp730
Rp731
ag5
(g9
S'\xd7\xa3p=\n\xd7\x19\xc0'
p732
tp733
Rp734
ag5
(g9
S')\\\x8f\xc2\xf5(\x18\xc0'
p735
tp736
Rp737
ag5
(g9
S'\x8f\xc2\xf5(\\\x8f\x17\xc0'
p738
tp739
Rp740
ag5
(g9
S'=\n\xd7\xa3p=\x17\xc0'
p741
tp742
Rp743
ag5
(g9
S'H\xe1z\x14\xaeG\x16\xc0'
p744
tp745
Rp746
ag5
(g9
S'\xc3\xf5(\\\x8f\xc2\x14\xc0'
p747
tp748
Rp749
ag5
(g9
S'\x9a\x99\x99\x99\x99\x99\x13\xc0'
p750
tp751
Rp752
ag5
(g9
S'333333\x12\xc0'
p753
tp754
Rp755
ag5
(g9
S'\xaeG\xe1z\x14\xae\x10\xc0'
p756
tp757
Rp758
ag5
(g9
S'\xcd\xcc\xcc\xcc\xcc\xcc\x0e\xc0'
p759
tp760
Rp761
ag5
(g9
S'\x1f\x85\xebQ\xb8\x1e\x0b\xc0'
p762
tp763
Rp764
ag5
(g9
S'\xcd\xcc\xcc\xcc\xcc\xcc\x08\xc0'
p765
tp766
Rp767
ag5
(g9
S'\xf6(\\\x8f\xc2\xf5\x06\xc0'
p768
tp769
Rp770
ag5
(g9
S'\x00\x00\x00\x00\x00\x00\x04\xc0'
p771
tp772
Rp773
ag5
(g9
S'\xb8\x1e\x85\xebQ\xb8\x00\xc0'
p774
tp775
Rp776
ag5
(g9
S'\x8f\xc2\xf5(\\\x8f\xfa\xbf'
p777
tp778
Rp779
ag5
(g9
S'333333\xf3\xbf'
p780
tp781
Rp782
ag5
(g9
S'=\n\xd7\xa3p=\xea\xbf'
p783
tp784
Rp785
ag5
(g9
S'\xf6(\\\x8f\xc2\xf5\xd8\xbf'
p786
tp787
Rp788
ag5
(g9
S'q=\n\xd7\xa3p\xcd?'
p789
tp790
Rp791
ag5
(g9
S'q=\n\xd7\xa3p\xe5?'
p792
tp793
Rp794
ag5
(g9
S'\xecQ\xb8\x1e\x85\xeb\xf1?'
p795
tp796
Rp797
ag5
(g9
S'333333\xfb?'
p798
tp799
Rp800
ag5
(g9
S'\xecQ\xb8\x1e\x85\xeb\x01@'
p801
tp802
Rp803
ag5
(g9
S'q=\n\xd7\xa3p\x05@'
p804
tp805
Rp806
ag5
(g9
S')\\\x8f\xc2\xf5(\n@'
p807
tp808
Rp809
ag5
(g9
S'H\xe1z\x14\xaeG\r@'
p810
tp811
Rp812
ag5
(g9
S'\x00\x00\x00\x00\x00\x00\x10@'
p813
tp814
Rp815
ag5
(g9
S'H\xe1z\x14\xaeG\x11@'
p816
tp817
Rp818
ag5
(g9
S'\x00\x00\x00\x00\x00\x00\x13@'
p819
tp820
Rp821
ag5
(g9
S'\n\xd7\xa3p=\n\x15@'
p822
tp823
Rp824
ag5
(g9
S'\xa4p=\n\xd7\xa3\x15@'
p825
tp826
Rp827
ag5
(g9
S'\x1f\x85\xebQ\xb8\x1e\x16@'
p828
tp829
Rp830
ag5
(g9
S'\x8f\xc2\xf5(\\\x8f\x16@'
p831
tp832
Rp833
ag5
(g9
S'\xd7\xa3p=\n\xd7\x17@'
p834
tp835
Rp836
ag5
(g9
S'\\\x8f\xc2\xf5(\\\x18@'
p837
tp838
Rp839
ag5
(g9
S'\xe1z\x14\xaeG\xe1\x18@'
p840
tp841
Rp842
ag5
(g9
S'\xecQ\xb8\x1e\x85\xeb\x19@'
p843
tp844
Rp845
ag5
(g9
S'\xf6(\\\x8f\xc2\xf5\x1b@'
p846
tp847
Rp848
ag5
(g9
S'\\\x8f\xc2\xf5(\\\x1d@'
p849
tp850
Rp851
ag5
(g9
S'\xe1z\x14\xaeG\xe1\x1e@'
p852
tp853
Rp854
ag5
(g9
S'\xc3\xf5(\\\x8f\xc2\x1f@'
p855
tp856
Rp857
ag5
(g9
S'\\\x8f\xc2\xf5(\\ @'
p858
tp859
Rp860
ag5
(g9
S'q=\n\xd7\xa3\xf0 @'
p861
tp862
Rp863
ag5
(g9
S'\\\x8f\xc2\xf5(\\!@'
p864
tp865
Rp866
ag5
(g9
S'\x9a\x99\x99\x99\x99\x19"@'
p867
tp868
Rp869
ag5
(g9
S'\x9a\x99\x99\x99\x99\x99"@'
p870
tp871
Rp872
ag5
(g9
S'\xecQ\xb8\x1e\x85\xeb"@'
p873
tp874
Rp875
ag5
(g9
S')\\\x8f\xc2\xf5\xa8#@'
p876
tp877
Rp878
ag5
(g9
S'333333$@'
p879
tp880
Rp881
ag5
(g9
S'\xb8\x1e\x85\xebQ\xb8$@'
p882
tp883
Rp884
ag5
(g9
S'333333%@'
p885
tp886
Rp887
ag5
(g9
S'\x85\xebQ\xb8\x1e\x85%@'
p888
tp889
Rp890
ag5
(g9
S'\xd7\xa3p=\n\xd7%@'
p891
tp892
Rp893
ag5
(g9
S'\xf6(\\\x8f\xc2\xf5%@'
p894
tp895
Rp896
ag5
(g9
S'ffffff&@'
p897
tp898
Rp899
ag5
(g9
S"\x00\x00\x00\x00\x00\x00'@"
p900
tp901
Rp902
ag5
(g9
S"\xe1z\x14\xaeG\xe1'@"
p903
tp904
Rp905
ag5
(g9
S'\xcd\xcc\xcc\xcc\xcc\xcc(@'
p906
tp907
Rp908
ag5
(g9
S'R\xb8\x1e\x85\xeb\xd1)@'
p909
tp910
Rp911
ag5
(g9
S'\xecQ\xb8\x1e\x85k*@'
p912
tp913
Rp914
ag5
(g9
S'\xd7\xa3p=\nW+@'
p915
tp916
Rp917
ag5
(g9
S'\x1f\x85\xebQ\xb8\x1e,@'
p918
tp919
Rp920
ag5
(g9
S'\x85\xebQ\xb8\x1e\x85,@'
p921
tp922
Rp923
ag5
(g9
S'\x8f\xc2\xf5(\\\x0f-@'
p924
tp925
Rp926
asS'episodes_log'
p927
(lp928
(lp929
F-21.0
aF-20.0
aF-19.0
aF-21.0
aF-20.0
aF-19.0
aF-21.0
aF-21.0
aF-21.0
aF-20.0
aF-21.0
aF-20.0
aF-19.0
aF-21.0
aF-20.0
aF-19.0
aF-19.0
aF-21.0
aF-20.0
aF-19.0
aF-20.0
aF-21.0
aF-21.0
aF-19.0
aF-19.0
aF-19.0
aF-20.0
aF-19.0
aF-21.0
aF-21.0
aF-20.0
aF-21.0
aF-21.0
aF-20.0
aF-21.0
aF-21.0
aF-21.0
aF-21.0
aF-20.0
aF-21.0
aF-21.0
aF-19.0
aF-21.0
aF-20.0
aF-20.0
aF-20.0
aF-21.0
aF-20.0
aF-20.0
aF-19.0
aF-21.0
aF-18.0
aF-21.0
aF-21.0
aF-21.0
aF-21.0
aF-21.0
aF-21.0
aF-21.0
aF-21.0
aF-21.0
aF-20.0
aF-20.0
aF-21.0
aF-20.0
aF-21.0
aF-21.0
aF-21.0
aF-20.0
aF-21.0
aF-21.0
aF-20.0
aF-20.0
aF-20.0
aF-21.0
aF-21.0
aF-21.0
aF-21.0
aF-20.0
aF-20.0
aF-20.0
aF-20.0
aF-21.0
aF-20.0
aF-21.0
aF-20.0
aF-20.0
aF-21.0
aF-21.0
aF-20.0
aF-20.0
aF-21.0
aF-20.0
aF-17.0
aF-20.0
aF-21.0
aF-21.0
aF-20.0
aF-20.0
aF-20.0
aF-18.0
aF-20.0
aF-20.0
aF-21.0
aF-20.0
aF-20.0
aF-21.0
aF-20.0
aF-19.0
aF-21.0
aF-19.0
aF-20.0
aF-21.0
aF-19.0
aF-21.0
aF-21.0
aF-21.0
aF-20.0
aF-21.0
aF-20.0
aF-20.0
aF-20.0
aF-20.0
aF-21.0
aF-20.0
aF-20.0
aF-20.0
aF-19.0
aF-20.0
aF-19.0
aF-20.0
aF-20.0
aF-20.0
aF-21.0
aF-20.0
aF-20.0
aF-21.0
aF-19.0
aF-18.0
aF-21.0
aF-21.0
aF-20.0
aF-20.0
aF-19.0
aF-20.0
aF-19.0
aF-21.0
aF-20.0
aF-20.0
aF-20.0
aF-20.0
aF-21.0
aF-19.0
aF-20.0
aF-21.0
aF-20.0
aF-20.0
aF-20.0
aF-20.0
aF-21.0
aF-21.0
aF-21.0
aF-18.0
aF-18.0
aF-21.0
aF-20.0
aF-21.0
aF-21.0
aF-21.0
aF-20.0
aF-20.0
aF-21.0
aF-21.0
aF-21.0
aF-19.0
aF-21.0
aF-21.0
aF-19.0
aF-21.0
aF-21.0
aF-21.0
aF-18.0
aF-20.0
aF-21.0
aF-20.0
aF-21.0
aF-20.0
aF-19.0
aF-20.0
aF-20.0
aF-20.0
aF-21.0
aF-21.0
aF-18.0
aF-20.0
aF-19.0
aF-21.0
aF-20.0
aF-20.0
aF-20.0
aF-19.0
aF-20.0
aF-18.0
aF-20.0
aF-19.0
aF-21.0
aF-18.0
aF-20.0
aF-20.0
aF-19.0
aF-18.0
aF-18.0
aF-21.0
aF-18.0
aF-18.0
aF-20.0
aF-19.0
aF-20.0
aF-20.0
aF-19.0
aF-20.0
aF-20.0
aF-20.0
aF-18.0
aF-18.0
aF-18.0
aF-18.0
aF-19.0
aF-20.0
aF-19.0
aF-21.0
aF-17.0
aF-18.0
aF-19.0
aF-17.0
aF-20.0
aF-18.0
aF-19.0
aF-21.0
aF-20.0
aF-19.0
aF-20.0
aF-19.0
aF-17.0
aF-20.0
aF-20.0
aF-19.0
aF-16.0
aF-18.0
aF-19.0
aF-17.0
aF-20.0
aF-17.0
aF-16.0
aF-19.0
aF-18.0
aF-16.0
aF-19.0
aF-17.0
aF-20.0
aF-16.0
aF-16.0
aF-19.0
aF-19.0
aF-19.0
aF-17.0
aF-18.0
aF-18.0
aF-16.0
aF-16.0
aF-20.0
aF-19.0
aF-20.0
aF-18.0
aF-18.0
aF-18.0
aF-17.0
aF-16.0
aF-19.0
aF-15.0
aF-18.0
aF-19.0
aF-18.0
aF-17.0
aF-17.0
aF-15.0
aF-16.0
aF-14.0
aF-18.0
aF-10.0
aF-16.0
aF-16.0
aF-16.0
aF-15.0
aF-17.0
aF-16.0
aF-20.0
aF-15.0
aF-17.0
aF-17.0
aF-15.0
aF-12.0
aF-18.0
aF-17.0
aF-18.0
aF-16.0
aF-18.0
aF-13.0
aF-17.0
aF-15.0
aF-17.0
aF-18.0
aF-16.0
aF-17.0
aF-11.0
aF-21.0
aF-15.0
aF-18.0
aF-14.0
aF-13.0
aF-17.0
aF-13.0
aF-14.0
aF-18.0
aF-10.0
aF-18.0
aF-13.0
aF-15.0
aF-17.0
aF-13.0
aF-12.0
aF-19.0
aF-11.0
aF-14.0
aF-16.0
aF-21.0
aF-17.0
aF-18.0
aF-18.0
aF-17.0
aF-18.0
aF-13.0
aF-13.0
aF-9.0
aF-16.0
aF-19.0
aF-17.0
aF-13.0
aF-17.0
aF-17.0
aF-15.0
aF-9.0
aF-14.0
aF-15.0
aF-9.0
aF-17.0
aF-17.0
aF-12.0
aF-17.0
aF-14.0
aF-19.0
aF-13.0
aF-11.0
aF-15.0
aF-15.0
aF-14.0
aF-17.0
aF-17.0
aF-12.0
aF-18.0
aF-17.0
aF-17.0
aF-16.0
aF-14.0
aF-18.0
aF-12.0
aF-12.0
aF-17.0
aF-9.0
aF-13.0
aF-18.0
aF-15.0
aF-13.0
aF-14.0
aF-15.0
aF-18.0
aF-13.0
aF-15.0
aF-13.0
aF-8.0
aF-17.0
aF-17.0
aF-9.0
aF-15.0
aF-13.0
aF-16.0
aF-15.0
aF-14.0
aF-9.0
aF-12.0
aF-17.0
aF-7.0
aF-13.0
aF-13.0
aF-17.0
aF-16.0
aF-14.0
aF-7.0
aF-17.0
aF-12.0
aF-15.0
aF-9.0
aF-18.0
aF-13.0
aF-17.0
aF-8.0
aF-15.0
aF-15.0
aF-15.0
aF-14.0
aF-12.0
aF-16.0
aF-15.0
aF-16.0
aF-11.0
aF-15.0
aF-6.0
aF-10.0
aF-14.0
aF-14.0
aF-13.0
aF-10.0
aF-10.0
aF-10.0
aF-6.0
aF-9.0
aF-6.0
aF-7.0
aF-13.0
aF-9.0
aF-8.0
aF-15.0
aF-6.0
aF-17.0
aF-13.0
aF-16.0
aF-7.0
aF-6.0
aF-13.0
aF-14.0
aF-12.0
aF-12.0
aF-8.0
aF-18.0
aF-6.0
aF-14.0
aF-1.0
aF-8.0
aF-5.0
aF-2.0
aF-14.0
aF-15.0
aF-9.0
aF-13.0
aF-15.0
aF-6.0
aF-16.0
aF-13.0
aF-17.0
aF-12.0
aF-2.0
aF-10.0
aF-9.0
aF-14.0
aF-6.0
aF-1.0
aF-14.0
aF-14.0
aF-2.0
aF-4.0
aF-10.0
aF-8.0
aF-5.0
aF-8.0
aF-4.0
aF-13.0
aF-8.0
aF-11.0
aF-8.0
aF-5.0
aF-5.0
aF-11.0
aF-4.0
aF-13.0
aF-2.0
aF-9.0
aF6.0
aF-6.0
aF-3.0
aF4.0
aF-2.0
aF-9.0
aF4.0
aF-3.0
aF-3.0
aF1.0
aF-9.0
aF-11.0
aF-3.0
aF-5.0
aF5.0
aF-2.0
aF-3.0
aF3.0
aF-11.0
aF-1.0
aF-2.0
aF10.0
aF-2.0
aF11.0
aF-3.0
aF-4.0
aF-4.0
aF5.0
aF5.0
aF6.0
aF-4.0
aF4.0
aF3.0
aF1.0
aF4.0
aF4.0
aF1.0
aF1.0
aF-2.0
aF-5.0
aF-2.0
aF2.0
aF2.0
aF5.0
aF-1.0
aF2.0
aF-1.0
aF7.0
aF-2.0
aF8.0
aF3.0
aF2.0
aF7.0
aF8.0
aF-2.0
aF2.0
aF5.0
aF1.0
aF8.0
aF1.0
aF5.0
aF-1.0
aF5.0
aF-9.0
aF8.0
aF7.0
aF7.0
aF12.0
aF-3.0
aF-1.0
aF10.0
aF4.0
aF12.0
aF4.0
aF-3.0
aF13.0
aF4.0
aF-2.0
aF12.0
aF11.0
aF7.0
aF15.0
aF11.0
aF8.0
aF9.0
aF6.0
aF12.0
aF6.0
aF11.0
aF12.0
aF10.0
aF9.0
aF10.0
aF11.0
aF9.0
aF10.0
aF5.0
aF12.0
aF13.0
aF10.0
aF10.0
aF13.0
aF13.0
aF9.0
aF8.0
aF10.0
aF4.0
aF9.0
aF8.0
aF10.0
aF7.0
aF12.0
aF1.0
aF10.0
aF9.0
aF15.0
aF12.0
aF4.0
aF3.0
aF2.0
aF7.0
aF10.0
aF2.0
aF7.0
aF8.0
aF5.0
aF11.0
aF8.0
aF10.0
aF3.0
aF6.0
aF10.0
aF7.0
aF3.0
aF11.0
aF12.0
aF9.0
aF11.0
aF7.0
aF11.0
aF12.0
aF14.0
aF12.0
aF10.0
aF14.0
aF7.0
aF16.0
aF13.0
aF13.0
aF12.0
aF6.0
aF14.0
aF10.0
aF12.0
aF8.0
aF12.0
aF12.0
aF12.0
aF10.0
aF10.0
aF15.0
aF6.0
aF9.0
aF10.0
aF14.0
aF12.0
aF14.0
aF12.0
aF9.0
aF12.0
aF9.0
aF11.0
aF10.0
aF16.0
aF5.0
aF15.0
aF12.0
aF17.0
aF17.0
aF15.0
aF20.0
aF13.0
aF18.0
aF16.0
aF15.0
aF17.0
aF13.0
aF17.0
aF16.0
aF14.0
aF16.0
aF17.0
aF13.0
aF14.0
aF11.0
aF9.0
aF14.0
aF13.0
aF15.0
aF15.0
aF12.0
aF17.0
aF6.0
aF10.0
aF10.0
aF18.0
aF13.0
aF18.0
aF16.0
aF16.0
aF18.0
aF17.0
aF20.0
aF18.0
aF19.0
aF21.0
aF13.0
aF15.0
aF14.0
aF17.0
aF16.0
aF14.0
aF19.0
aF18.0
aF18.0
aF14.0
aF14.0
aF19.0
aF15.0
aF14.0
aF16.0
aF15.0
aF19.0
aF17.0
aF16.0
aF18.0
aF16.0
aF17.0
aF19.0
aF19.0
aF13.0
aF17.0
aF19.0
aF19.0
aF12.0
aF16.0
aF17.0
aF20.0
aF19.0
aF18.0
aag929
ag929
ag929
ag929
ag929
ag929
ag929
ag929
ag929
ag929
ag929
ag929
ag929
ag929
ag929
ag929
ag929
ag929
ag929
ag929
ag929
ag929
ag929
ag929
ag929
ag929
ag929
ag929
ag929
ag929
ag929
ag929
ag929
ag929
ag929
ag929
ag929
ag929
ag929
ag929
ag929
ag929
ag929
ag929
ag929
ag929
ag929
ag929
ag929
ag929
ag929
ag929
ag929
ag929
ag929
ag929
ag929
ag929
ag929
ag929
ag929
ag929
ag929
ag929
ag929
ag929
ag929
ag929
ag929
ag929
ag929
ag929
ag929
ag929
ag929
ag929
ag929
ag929
ag929
ag929
ag929
ag929
ag929
ag929
ag929
ag929
ag929
ag929
ag929
ag929
ag929
ag929
ag929
ag929
ag929
ag929
ag929
ag929
ag929
ag929
ag929
ag929
ag929
ag929
ag929
ag929
ag929
ag929
ag929
ag929
ag929
ag929
ag929
ag929
ag929
ag929
ag929
ag929
ag929
ag929
ag929
ag929
ag929
ag929
ag929
ag929
ag929
ag929
ag929
ag929
ag929
ag929
ag929
ag929
ag929
ag929
ag929
ag929
ag929
ag929
ag929
ag929
ag929
ag929
ag929
ag929
ag929
ag929
ag929
ag929
ag929
ag929
ag929
ag929
as.