(dp0
S't_log'
p1
(lp2
I60000
aI70000
aI80000
aI90000
aI100000
aI110000
aI120000
aI130000
aI140000
aI150000
aI160000
aI170000
aI180000
aI190000
aI200000
asS'mean_reward_log'
p3
(lp4
cnumpy.core.multiarray
scalar
p5
(cnumpy
dtype
p6
(S'f8'
p7
I0
I1
tp8
Rp9
(I3
S'<'
p10
NNNI-1
I-1
I0
tp11
bS'\xd1E\x17]tQ4\xc0'
p12
tp13
Rp14
ag5
(g9
S'\xc4Y\xf9\tqV4\xc0'
p15
tp16
Rp17
ag5
(g9
S'\x8c.\xba\xe8\xa2k4\xc0'
p18
tp19
Rp20
ag5
(g9
S'm\xb2\xc9&\x9bl4\xc0'
p21
tp22
Rp23
ag5
(g9
S'\xf6(\\\x8f\xc2u4\xc0'
p24
tp25
Rp26
ag5
(g9
S'\xc3\xf5(\\\x8f\x824\xc0'
p27
tp28
Rp29
ag5
(g9
S'\xc3\xf5(\\\x8f\x824\xc0'
p30
tp31
Rp32
ag5
(g9
S'\xb8\x1e\x85\xebQx4\xc0'
p33
tp34
Rp35
ag5
(g9
S'\x00\x00\x00\x00\x00\x804\xc0'
p36
tp37
Rp38
ag5
(g9
S'\xb8\x1e\x85\xebQx4\xc0'
p39
tp40
Rp41
ag5
(g9
S'\xaeG\xe1z\x14n4\xc0'
p42
tp43
Rp44
ag5
(g9
S'\x1f\x85\xebQ\xb8^4\xc0'
p45
tp46
Rp47
ag5
(g9
S'\n\xd7\xa3p=J4\xc0'
p48
tp49
Rp50
ag5
(g9
S'\xb8\x1e\x85\xebQ84\xc0'
p51
tp52
Rp53
ag5
(g9
S'\x8f\xc2\xf5(\\\x0f4\xc0'
p54
tp55
Rp56
asS'learning_rate_log'
p57
(lp58
F0.0001
aF0.0001
aF0.0001
aF0.0001
aF0.0001
aF0.0001
aF0.0001
aF0.0001
aF0.0001
aF0.0001
aF0.0001
aF0.0001
aF0.0001
aF0.0001
aF0.0001
asS'exploration_log'
p59
(lp60
F0.011485
aF0.0117325
aF0.011980000000000001
aF0.0122275
aF0.012475
aF0.0127225
aF0.01297
aF0.0132175
aF0.013465000000000001
aF0.013712499999999999
aF0.01396
aF0.014207500000000001
aF0.014454999999999999
aF0.0147025
aF0.014950000000000001
asS'best_mean_log'
p61
(lp62
F-inf
aF-inf
aF-inf
aF-inf
ag5
(g9
S'\xecQ\xb8\x1e\x85k4\xc0'
p63
tp64
Rp65
ag65
ag65
ag65
ag65
ag65
ag65
ag5
(g9
S'\x1f\x85\xebQ\xb8^4\xc0'
p66
tp67
Rp68
ag5
(g9
S'\n\xd7\xa3p=J4\xc0'
p69
tp70
Rp71
ag5
(g9
S'\xb8\x1e\x85\xebQ84\xc0'
p72
tp73
Rp74
ag5
(g9
S'\x8f\xc2\xf5(\\\x0f4\xc0'
p75
tp76
Rp77
asS'episodes_log'
p78
(lp79
(lp80
F-21.0
aF-20.0
aF-19.0
aF-21.0
aF-20.0
aF-19.0
aF-21.0
aF-21.0
aF-21.0
aF-20.0
aF-21.0
aF-20.0
aF-19.0
aF-21.0
aF-20.0
aF-19.0
aF-19.0
aF-21.0
aF-20.0
aF-19.0
aF-20.0
aF-21.0
aF-21.0
aF-19.0
aF-19.0
aF-19.0
aF-20.0
aF-19.0
aF-21.0
aF-21.0
aF-20.0
aF-21.0
aF-21.0
aF-20.0
aF-21.0
aF-21.0
aF-21.0
aF-21.0
aF-20.0
aF-21.0
aF-21.0
aF-19.0
aF-21.0
aF-20.0
aF-20.0
aF-20.0
aF-21.0
aF-20.0
aF-20.0
aF-19.0
aF-21.0
aF-18.0
aF-21.0
aF-21.0
aF-21.0
aF-21.0
aF-20.0
aF-21.0
aF-21.0
aF-21.0
aF-20.0
aF-21.0
aF-21.0
aF-21.0
aF-21.0
aF-21.0
aF-21.0
aF-19.0
aF-21.0
aF-21.0
aF-20.0
aF-21.0
aF-18.0
aF-21.0
aF-21.0
aF-21.0
aF-21.0
aF-21.0
aF-21.0
aF-21.0
aF-21.0
aF-21.0
aF-21.0
aF-21.0
aF-21.0
aF-21.0
aF-21.0
aF-21.0
aF-21.0
aF-21.0
aF-21.0
aF-21.0
aF-21.0
aF-19.0
aF-20.0
aF-20.0
aF-21.0
aF-19.0
aF-21.0
aF-21.0
aF-20.0
aF-21.0
aF-20.0
aF-21.0
aF-21.0
aF-21.0
aF-19.0
aF-21.0
aF-21.0
aF-21.0
aF-21.0
aF-20.0
aF-20.0
aF-21.0
aF-21.0
aF-19.0
aF-21.0
aF-21.0
aF-20.0
aF-19.0
aF-21.0
aF-21.0
aF-21.0
aF-21.0
aF-20.0
aF-19.0
aF-19.0
aF-20.0
aF-20.0
aF-19.0
aF-21.0
aF-21.0
aF-20.0
aF-20.0
aF-21.0
aF-21.0
aF-21.0
aF-20.0
aF-20.0
aF-19.0
aF-21.0
aF-19.0
aF-20.0
aF-19.0
aF-21.0
aF-21.0
aF-21.0
aF-21.0
aF-19.0
aF-20.0
aF-20.0
aF-20.0
aF-21.0
aF-21.0
aF-21.0
aF-20.0
aF-21.0
aF-21.0
aF-18.0
aF-21.0
aF-21.0
aF-20.0
aF-21.0
aF-21.0
aF-21.0
aF-21.0
aF-19.0
aF-19.0
aF-21.0
aF-19.0
aF-21.0
aF-20.0
aF-18.0
aF-20.0
aF-21.0
aF-20.0
aF-20.0
aF-21.0
aF-19.0
aF-20.0
aF-21.0
aF-21.0
aF-21.0
aF-20.0
aF-21.0
aF-18.0
aF-20.0
aF-20.0
aF-21.0
aF-20.0
aF-21.0
aF-20.0
aF-18.0
aF-19.0
aF-19.0
aF-19.0
aF-20.0
aF-20.0
aF-21.0
aF-19.0
aF-20.0
aF-20.0
aF-19.0
aF-20.0
aF-17.0
aF-19.0
aF-18.0
aF-18.0
aF-18.0
aag80
ag80
ag80
ag80
ag80
ag80
ag80
ag80
ag80
ag80
ag80
ag80
ag80
ag80
as.