(dp0
S't_log'
p1
(lp2
I60000
aI70000
aI80000
aI90000
aI100000
aI110000
aI120000
aI130000
aI140000
aI150000
aI160000
aI170000
aI180000
aI190000
aI200000
aI210000
aI220000
aI230000
aI240000
aI250000
aI260000
aI270000
aI280000
aI290000
aI300000
aI310000
aI320000
aI330000
aI340000
aI350000
aI360000
aI370000
aI380000
aI390000
aI400000
aI410000
aI420000
aI430000
aI440000
aI450000
aI460000
aI470000
aI480000
aI490000
aI500000
aI510000
aI520000
aI530000
aI540000
aI550000
aI560000
aI570000
aI580000
aI590000
aI600000
aI610000
aI620000
aI630000
aI640000
aI650000
aI660000
aI670000
aI680000
aI690000
aI700000
aI710000
aI720000
aI730000
aI740000
aI750000
aI760000
aI770000
aI780000
aI790000
aI800000
aI810000
aI820000
aI830000
aI840000
aI850000
aI860000
aI870000
aI880000
aI890000
aI900000
aI910000
aI920000
aI930000
aI940000
aI950000
aI960000
aI970000
aI980000
aI990000
aI1000000
asS'mean_reward_log'
p3
(lp4
cnumpy.core.multiarray
scalar
p5
(cnumpy
dtype
p6
(S'f8'
p7
I0
I1
tp8
Rp9
(I3
S'<'
p10
NNNI-1
I-1
I0
tp11
bS'\xd1E\x17]tQ4\xc0'
p12
tp13
Rp14
ag5
(g9
S'\xc4Y\xf9\tqV4\xc0'
p15
tp16
Rp17
ag5
(g9
S'\x8c.\xba\xe8\xa2k4\xc0'
p18
tp19
Rp20
ag5
(g9
S'm\xb2\xc9&\x9bl4\xc0'
p21
tp22
Rp23
ag5
(g9
S'\xf6(\\\x8f\xc2u4\xc0'
p24
tp25
Rp26
ag5
(g9
S'\xc3\xf5(\\\x8f\x824\xc0'
p27
tp28
Rp29
ag5
(g9
S'\xc3\xf5(\\\x8f\x824\xc0'
p30
tp31
Rp32
ag5
(g9
S'\xb8\x1e\x85\xebQx4\xc0'
p33
tp34
Rp35
ag5
(g9
S'\x00\x00\x00\x00\x00\x804\xc0'
p36
tp37
Rp38
ag5
(g9
S'\xb8\x1e\x85\xebQx4\xc0'
p39
tp40
Rp41
ag5
(g9
S'\xaeG\xe1z\x14n4\xc0'
p42
tp43
Rp44
ag5
(g9
S'\x1f\x85\xebQ\xb8^4\xc0'
p45
tp46
Rp47
ag5
(g9
S'\n\xd7\xa3p=J4\xc0'
p48
tp49
Rp50
ag5
(g9
S'\xb8\x1e\x85\xebQ84\xc0'
p51
tp52
Rp53
ag5
(g9
S'\x8f\xc2\xf5(\\\x0f4\xc0'
p54
tp55
Rp56
ag5
(g9
S'fffff\xe63\xc0'
p57
tp58
Rp59
ag5
(g9
S'\xb8\x1e\x85\xebQ\xb83\xc0'
p60
tp61
Rp62
ag5
(g9
S'\x14\xaeG\xe1z\x943\xc0'
p63
tp64
Rp65
ag5
(g9
S'\xcd\xcc\xcc\xcc\xccL3\xc0'
p66
tp67
Rp68
ag5
(g9
S'\x85\xebQ\xb8\x1e\x053\xc0'
p69
tp70
Rp71
ag5
(g9
S'R\xb8\x1e\x85\xeb\xd12\xc0'
p72
tp73
Rp74
ag5
(g9
S')\\\x8f\xc2\xf5\xa82\xc0'
p75
tp76
Rp77
ag5
(g9
S'\x00\x00\x00\x00\x00\x802\xc0'
p78
tp79
Rp80
ag5
(g9
S'q=\n\xd7\xa302\xc0'
p81
tp82
Rp83
ag5
(g9
S'\xecQ\xb8\x1e\x85\xeb1\xc0'
p84
tp85
Rp86
ag5
(g9
S'\\\x8f\xc2\xf5(\x9c1\xc0'
p87
tp88
Rp89
ag5
(g9
S'q=\n\xd7\xa3p1\xc0'
p90
tp91
Rp92
ag5
(g9
S'\x8f\xc2\xf5(\\\x0f1\xc0'
p93
tp94
Rp95
ag5
(g9
S'\n\xd7\xa3p=\xca0\xc0'
p96
tp97
Rp98
ag5
(g9
S'\x85\xebQ\xb8\x1e\x850\xc0'
p99
tp100
Rp101
ag5
(g9
S'{\x14\xaeG\xe1:0\xc0'
p102
tp103
Rp104
ag5
(g9
S'=\n\xd7\xa3p\xbd/\xc0'
p105
tp106
Rp107
ag5
(g9
S'\xd7\xa3p=\nW/\xc0'
p108
tp109
Rp110
ag5
(g9
S'\xcd\xcc\xcc\xcc\xcc\xcc.\xc0'
p111
tp112
Rp113
ag5
(g9
S'\n\xd7\xa3p=\x8a.\xc0'
p114
tp115
Rp116
ag5
(g9
S'333333.\xc0'
p117
tp118
Rp119
ag5
(g9
S'\xaeG\xe1z\x14.-\xc0'
p120
tp121
Rp122
ag5
(g9
S'H\xe1z\x14\xae\xc7,\xc0'
p123
tp124
Rp125
ag5
(g9
S'\\\x8f\xc2\xf5(\\,\xc0'
p126
tp127
Rp128
ag5
(g9
S'\xcd\xcc\xcc\xcc\xcc\xcc+\xc0'
p129
tp130
Rp131
ag5
(g9
S'\x14\xaeG\xe1z\x14+\xc0'
p132
tp133
Rp134
ag5
(g9
S'\x14\xaeG\xe1z\x94*\xc0'
p135
tp136
Rp137
ag5
(g9
S'fffff\xe6)\xc0'
p138
tp139
Rp140
ag5
(g9
S'333333)\xc0'
p141
tp142
Rp143
ag5
(g9
S'\x8f\xc2\xf5(\\\x0f)\xc0'
p144
tp145
Rp146
ag5
(g9
S'\x9a\x99\x99\x99\x99\x99(\xc0'
p147
tp148
Rp149
ag5
(g9
S'\xaeG\xe1z\x14.(\xc0'
p150
tp151
Rp152
ag5
(g9
S"\xcd\xcc\xcc\xcc\xccL'\xc0"
p153
tp154
Rp155
ag5
(g9
S'q=\n\xd7\xa3p&\xc0'
p156
tp157
Rp158
ag5
(g9
S'q=\n\xd7\xa3\xf0%\xc0'
p159
tp160
Rp161
ag5
(g9
S'\xd7\xa3p=\nW%\xc0'
p162
tp163
Rp164
ag5
(g9
S'\x85\xebQ\xb8\x1e\x05%\xc0'
p165
tp166
Rp167
ag5
(g9
S'R\xb8\x1e\x85\xebQ$\xc0'
p168
tp169
Rp170
ag5
(g9
S'\xecQ\xb8\x1e\x85\xeb#\xc0'
p171
tp172
Rp173
ag5
(g9
S'\x85\xebQ\xb8\x1e\x85#\xc0'
p174
tp175
Rp176
ag5
(g9
S'\x9a\x99\x99\x99\x99\x19#\xc0'
p177
tp178
Rp179
ag5
(g9
S'33333\xb3"\xc0'
p180
tp181
Rp182
ag5
(g9
S'\n\xd7\xa3p=\x8a"\xc0'
p183
tp184
Rp185
ag5
(g9
S'\x00\x00\x00\x00\x00\x80!\xc0'
p186
tp187
Rp188
ag5
(g9
S'H\xe1z\x14\xae\xc7 \xc0'
p189
tp190
Rp191
ag5
(g9
S'{\x14\xaeG\xe1z \xc0'
p192
tp193
Rp194
ag5
(g9
S'\xa4p=\n\xd7\xa3\x1e\xc0'
p195
tp196
Rp197
ag5
(g9
S'\xa4p=\n\xd7\xa3\x1c\xc0'
p198
tp199
Rp200
ag5
(g9
S'\xa4p=\n\xd7\xa3\x1b\xc0'
p201
tp202
Rp203
ag5
(g9
S'\xcd\xcc\xcc\xcc\xcc\xcc\x19\xc0'
p204
tp205
Rp206
ag5
(g9
S'\xaeG\xe1z\x14\xae\x17\xc0'
p207
tp208
Rp209
ag5
(g9
S')\\\x8f\xc2\xf5(\x16\xc0'
p210
tp211
Rp212
ag5
(g9
S'\x9a\x99\x99\x99\x99\x99\x15\xc0'
p213
tp214
Rp215
ag5
(g9
S'\xf6(\\\x8f\xc2\xf5\x12\xc0'
p216
tp217
Rp218
ag5
(g9
S')\\\x8f\xc2\xf5(\x0c\xc0'
p219
tp220
Rp221
ag5
(g9
S'\x8f\xc2\xf5(\\\x8f\x08\xc0'
p222
tp223
Rp224
ag5
(g9
S')\\\x8f\xc2\xf5(\x06\xc0'
p225
tp226
Rp227
ag5
(g9
S'q=\n\xd7\xa3p\x03\xc0'
p228
tp229
Rp230
ag5
(g9
S'\xb8\x1e\x85\xebQ\xb8\xfe\xbf'
p231
tp232
Rp233
ag5
(g9
S'\xecQ\xb8\x1e\x85\xeb\xf1\xbf'
p234
tp235
Rp236
ag5
(g9
S'\xb8\x1e\x85\xebQ\xb8\x9e\xbf'
p237
tp238
Rp239
ag5
(g9
S'\x85\xebQ\xb8\x1e\x85\xdb?'
p240
tp241
Rp242
ag5
(g9
S'\xcd\xcc\xcc\xcc\xcc\xcc\xf8?'
p243
tp244
Rp245
ag5
(g9
S'\x00\x00\x00\x00\x00\x00\x04@'
p246
tp247
Rp248
ag5
(g9
S'\xf6(\\\x8f\xc2\xf5\n@'
p249
tp250
Rp251
ag5
(g9
S'\\\x8f\xc2\xf5(\\\x11@'
p252
tp253
Rp254
ag5
(g9
S'\\\x8f\xc2\xf5(\\\x14@'
p255
tp256
Rp257
ag5
(g9
S'\x85\xebQ\xb8\x1e\x85\x16@'
p258
tp259
Rp260
ag5
(g9
S'H\xe1z\x14\xaeG\x1a@'
p261
tp262
Rp263
ag5
(g9
S'\xa4p=\n\xd7\xa3\x1d@'
p264
tp265
Rp266
ag5
(g9
S'\x85\xebQ\xb8\x1e\x85!@'
p267
tp268
Rp269
ag5
(g9
S'\x14\xaeG\xe1z\x14#@'
p270
tp271
Rp272
ag5
(g9
S'H\xe1z\x14\xae\xc7$@'
p273
tp274
Rp275
ag5
(g9
S')\\\x8f\xc2\xf5(&@'
p276
tp277
Rp278
ag5
(g9
S"\xc3\xf5(\\\x8f\xc2'@"
p279
tp280
Rp281
ag5
(g9
S'\x1f\x85\xebQ\xb8\x9e)@'
p282
tp283
Rp284
ag5
(g9
S'\x1f\x85\xebQ\xb8\x1e+@'
p285
tp286
Rp287
ag5
(g9
S'{\x14\xaeG\xe1z,@'
p288
tp289
Rp290
ag5
(g9
S'q=\n\xd7\xa3\xf0,@'
p291
tp292
Rp293
ag5
(g9
S'33333\xb3.@'
p294
tp295
Rp296
asS'learning_rate_log'
p297
(lp298
F0.0001
aF0.0001
aF0.0001
aF0.0001
aF0.0001
aF0.0001
aF0.0001
aF0.0001
aF0.0001
aF0.0001
aF0.0001
aF0.0001
aF0.0001
aF0.0001
aF0.0001
aF0.0001
aF0.0001
aF0.0001
aF0.0001
aF0.0001
aF0.0001
aF0.0001
aF0.0001
aF0.0001
aF0.0001
aF0.0001
aF0.0001
aF0.0001
aF0.0001
aF0.0001
aF0.0001
aF0.0001
aF0.0001
aF0.0001
aF0.0001
aF0.0001
aF0.0001
aF0.0001
aF0.0001
aF0.0001
aF0.0001
aF0.0001
aF0.0001
aF0.0001
aF0.0001
aF0.0001
aF0.0001
aF0.0001
aF0.0001
aF0.0001
aF0.0001
aF0.0001
aF0.0001
aF0.0001
aF0.0001
aF0.0001
aF0.0001
aF0.0001
aF0.0001
aF0.0001
aF0.0001
aF0.0001
aF0.0001
aF0.0001
aF0.0001
aF0.0001
aF0.0001
aF0.0001
aF0.0001
aF0.0001
aF0.0001
aF0.0001
aF0.0001
aF0.0001
aF0.0001
aF0.0001
aF0.0001
aF0.0001
aF0.0001
aF0.0001
aF0.0001
aF0.0001
aF0.0001
aF0.0001
aF0.0001
aF0.0001
aF0.0001
aF0.0001
aF0.0001
aF0.0001
aF0.0001
aF0.0001
aF0.0001
aF0.0001
aF0.0001
asS'exploration_log'
p299
(lp300
F0.011485
aF0.0117325
aF0.011980000000000001
aF0.0122275
aF0.012475
aF0.0127225
aF0.01297
aF0.0132175
aF0.013465000000000001
aF0.013712499999999999
aF0.01396
aF0.014207500000000001
aF0.014454999999999999
aF0.0147025
aF0.014950000000000001
aF0.0151975
aF0.015445
aF0.015692499999999998
aF0.01594
aF0.0161875
aF0.016434999999999998
aF0.0166825
aF0.01693
aF0.017177500000000002
aF0.017425
aF0.0176725
aF0.01792
aF0.018167500000000003
aF0.018415
aF0.0186625
aF0.01891
aF0.0191575
aF0.019405
aF0.0196525
aF0.0199
aF0.0201475
aF0.020395
aF0.0206425
aF0.02089
aF0.0211375
aF0.021385
aF0.0216325
aF0.02188
aF0.0221275
aF0.022375
aF0.022622499999999997
aF0.02287
aF0.0231175
aF0.023365
aF0.0236125
aF0.02386
aF0.0241075
aF0.024355
aF0.0246025
aF0.024849999999999997
aF0.025097500000000002
aF0.025345
aF0.0255925
aF0.025840000000000002
aF0.0260875
aF0.026335000000000004
aF0.026582500000000002
aF0.02683
aF0.027077500000000004
aF0.027325000000000002
aF0.0275725
aF0.027819999999999998
aF0.028067500000000002
aF0.028315
aF0.028562499999999998
aF0.028810000000000002
aF0.0290575
aF0.029304999999999998
aF0.029552500000000002
aF0.0298
aF0.030047499999999998
aF0.030295000000000002
aF0.0305425
aF0.030789999999999998
aF0.031037500000000003
aF0.031285
aF0.0315325
aF0.031779999999999996
aF0.0320275
aF0.032275
aF0.0325225
aF0.03277
aF0.0330175
aF0.033265
aF0.0335125
aF0.03376
aF0.0340075
aF0.034255
aF0.0345025
aF0.03475
asS'best_mean_log'
p301
(lp302
F-inf
aF-inf
aF-inf
aF-inf
ag5
(g9
S'\xecQ\xb8\x1e\x85k4\xc0'
p303
tp304
Rp305
ag305
ag305
ag305
ag305
ag305
ag305
ag5
(g9
S'\x1f\x85\xebQ\xb8^4\xc0'
p306
tp307
Rp308
ag5
(g9
S'\n\xd7\xa3p=J4\xc0'
p309
tp310
Rp311
ag5
(g9
S'\xb8\x1e\x85\xebQ84\xc0'
p312
tp313
Rp314
ag5
(g9
S'\x8f\xc2\xf5(\\\x0f4\xc0'
p315
tp316
Rp317
ag5
(g9
S'\xa4p=\n\xd7\xe33\xc0'
p318
tp319
Rp320
ag5
(g9
S'\xb8\x1e\x85\xebQ\xb83\xc0'
p321
tp322
Rp323
ag5
(g9
S'\x14\xaeG\xe1z\x943\xc0'
p324
tp325
Rp326
ag5
(g9
S'\xcd\xcc\xcc\xcc\xccL3\xc0'
p327
tp328
Rp329
ag5
(g9
S'\x85\xebQ\xb8\x1e\x053\xc0'
p330
tp331
Rp332
ag5
(g9
S'R\xb8\x1e\x85\xeb\xd12\xc0'
p333
tp334
Rp335
ag5
(g9
S')\\\x8f\xc2\xf5\xa82\xc0'
p336
tp337
Rp338
ag5
(g9
S'\x00\x00\x00\x00\x00\x802\xc0'
p339
tp340
Rp341
ag5
(g9
S'q=\n\xd7\xa302\xc0'
p342
tp343
Rp344
ag5
(g9
S'\xecQ\xb8\x1e\x85\xeb1\xc0'
p345
tp346
Rp347
ag5
(g9
S'\\\x8f\xc2\xf5(\x9c1\xc0'
p348
tp349
Rp350
ag5
(g9
S'q=\n\xd7\xa3p1\xc0'
p351
tp352
Rp353
ag5
(g9
S'\x8f\xc2\xf5(\\\x0f1\xc0'
p354
tp355
Rp356
ag5
(g9
S'\n\xd7\xa3p=\xca0\xc0'
p357
tp358
Rp359
ag5
(g9
S'\x85\xebQ\xb8\x1e\x850\xc0'
p360
tp361
Rp362
ag5
(g9
S'{\x14\xaeG\xe1:0\xc0'
p363
tp364
Rp365
ag5
(g9
S'=\n\xd7\xa3p\xbd/\xc0'
p366
tp367
Rp368
ag5
(g9
S'\xd7\xa3p=\nW/\xc0'
p369
tp370
Rp371
ag5
(g9
S'\xcd\xcc\xcc\xcc\xcc\xcc.\xc0'
p372
tp373
Rp374
ag5
(g9
S'\n\xd7\xa3p=\x8a.\xc0'
p375
tp376
Rp377
ag5
(g9
S'333333.\xc0'
p378
tp379
Rp380
ag5
(g9
S'\xaeG\xe1z\x14.-\xc0'
p381
tp382
Rp383
ag5
(g9
S'H\xe1z\x14\xae\xc7,\xc0'
p384
tp385
Rp386
ag5
(g9
S'\\\x8f\xc2\xf5(\\,\xc0'
p387
tp388
Rp389
ag5
(g9
S'\xcd\xcc\xcc\xcc\xcc\xcc+\xc0'
p390
tp391
Rp392
ag5
(g9
S'\x14\xaeG\xe1z\x14+\xc0'
p393
tp394
Rp395
ag5
(g9
S'\x14\xaeG\xe1z\x94*\xc0'
p396
tp397
Rp398
ag5
(g9
S'fffff\xe6)\xc0'
p399
tp400
Rp401
ag5
(g9
S'333333)\xc0'
p402
tp403
Rp404
ag5
(g9
S'\n\xd7\xa3p=\n)\xc0'
p405
tp406
Rp407
ag5
(g9
S'\x9a\x99\x99\x99\x99\x99(\xc0'
p408
tp409
Rp410
ag5
(g9
S'\xaeG\xe1z\x14.(\xc0'
p411
tp412
Rp413
ag5
(g9
S"\xcd\xcc\xcc\xcc\xccL'\xc0"
p414
tp415
Rp416
ag5
(g9
S'q=\n\xd7\xa3p&\xc0'
p417
tp418
Rp419
ag5
(g9
S'q=\n\xd7\xa3\xf0%\xc0'
p420
tp421
Rp422
ag5
(g9
S'\xd7\xa3p=\nW%\xc0'
p423
tp424
Rp425
ag5
(g9
S'\x85\xebQ\xb8\x1e\x05%\xc0'
p426
tp427
Rp428
ag5
(g9
S'R\xb8\x1e\x85\xebQ$\xc0'
p429
tp430
Rp431
ag5
(g9
S'\xecQ\xb8\x1e\x85\xeb#\xc0'
p432
tp433
Rp434
ag5
(g9
S'\x85\xebQ\xb8\x1e\x85#\xc0'
p435
tp436
Rp437
ag5
(g9
S'\x9a\x99\x99\x99\x99\x19#\xc0'
p438
tp439
Rp440
ag5
(g9
S')\\\x8f\xc2\xf5\xa8"\xc0'
p441
tp442
Rp443
ag5
(g9
S'\n\xd7\xa3p=\x8a"\xc0'
p444
tp445
Rp446
ag5
(g9
S'\x00\x00\x00\x00\x00\x80!\xc0'
p447
tp448
Rp449
ag5
(g9
S'H\xe1z\x14\xae\xc7 \xc0'
p450
tp451
Rp452
ag5
(g9
S'{\x14\xaeG\xe1z \xc0'
p453
tp454
Rp455
ag5
(g9
S'\xa4p=\n\xd7\xa3\x1e\xc0'
p456
tp457
Rp458
ag5
(g9
S'\xa4p=\n\xd7\xa3\x1c\xc0'
p459
tp460
Rp461
ag5
(g9
S'\xa4p=\n\xd7\xa3\x1b\xc0'
p462
tp463
Rp464
ag5
(g9
S'\xcd\xcc\xcc\xcc\xcc\xcc\x19\xc0'
p465
tp466
Rp467
ag5
(g9
S'\xaeG\xe1z\x14\xae\x17\xc0'
p468
tp469
Rp470
ag5
(g9
S')\\\x8f\xc2\xf5(\x16\xc0'
p471
tp472
Rp473
ag5
(g9
S'R\xb8\x1e\x85\xebQ\x15\xc0'
p474
tp475
Rp476
ag5
(g9
S'\xf6(\\\x8f\xc2\xf5\x12\xc0'
p477
tp478
Rp479
ag5
(g9
S')\\\x8f\xc2\xf5(\x0c\xc0'
p480
tp481
Rp482
ag5
(g9
S'\x8f\xc2\xf5(\\\x8f\x08\xc0'
p483
tp484
Rp485
ag5
(g9
S')\\\x8f\xc2\xf5(\x06\xc0'
p486
tp487
Rp488
ag5
(g9
S'q=\n\xd7\xa3p\x03\xc0'
p489
tp490
Rp491
ag5
(g9
S'\xb8\x1e\x85\xebQ\xb8\xfe\xbf'
p492
tp493
Rp494
ag5
(g9
S'\xecQ\xb8\x1e\x85\xeb\xf1\xbf'
p495
tp496
Rp497
ag5
(g9
S'\xb8\x1e\x85\xebQ\xb8\x9e\xbf'
p498
tp499
Rp500
ag5
(g9
S'\x85\xebQ\xb8\x1e\x85\xdb?'
p501
tp502
Rp503
ag5
(g9
S'\xcd\xcc\xcc\xcc\xcc\xcc\xf8?'
p504
tp505
Rp506
ag5
(g9
S'\x00\x00\x00\x00\x00\x00\x04@'
p507
tp508
Rp509
ag5
(g9
S'\xf6(\\\x8f\xc2\xf5\n@'
p510
tp511
Rp512
ag5
(g9
S'\\\x8f\xc2\xf5(\\\x11@'
p513
tp514
Rp515
ag5
(g9
S'\\\x8f\xc2\xf5(\\\x14@'
p516
tp517
Rp518
ag5
(g9
S'\x85\xebQ\xb8\x1e\x85\x16@'
p519
tp520
Rp521
ag5
(g9
S'H\xe1z\x14\xaeG\x1a@'
p522
tp523
Rp524
ag5
(g9
S'\xa4p=\n\xd7\xa3\x1d@'
p525
tp526
Rp527
ag5
(g9
S'\x85\xebQ\xb8\x1e\x85!@'
p528
tp529
Rp530
ag5
(g9
S'\x14\xaeG\xe1z\x14#@'
p531
tp532
Rp533
ag5
(g9
S'H\xe1z\x14\xae\xc7$@'
p534
tp535
Rp536
ag5
(g9
S')\\\x8f\xc2\xf5(&@'
p537
tp538
Rp539
ag5
(g9
S"\xc3\xf5(\\\x8f\xc2'@"
p540
tp541
Rp542
ag5
(g9
S'\x1f\x85\xebQ\xb8\x9e)@'
p543
tp544
Rp545
ag5
(g9
S'\x1f\x85\xebQ\xb8\x1e+@'
p546
tp547
Rp548
ag5
(g9
S'{\x14\xaeG\xe1z,@'
p549
tp550
Rp551
ag5
(g9
S'q=\n\xd7\xa3\xf0,@'
p552
tp553
Rp554
ag5
(g9
S'33333\xb3.@'
p555
tp556
Rp557
asS'episodes_log'
p558
(lp559
(lp560
F-21.0
aF-20.0
aF-19.0
aF-21.0
aF-20.0
aF-19.0
aF-21.0
aF-21.0
aF-21.0
aF-20.0
aF-21.0
aF-20.0
aF-19.0
aF-21.0
aF-20.0
aF-19.0
aF-19.0
aF-21.0
aF-20.0
aF-19.0
aF-20.0
aF-21.0
aF-21.0
aF-19.0
aF-19.0
aF-19.0
aF-20.0
aF-19.0
aF-21.0
aF-21.0
aF-20.0
aF-21.0
aF-21.0
aF-20.0
aF-21.0
aF-21.0
aF-21.0
aF-21.0
aF-20.0
aF-21.0
aF-21.0
aF-19.0
aF-21.0
aF-20.0
aF-20.0
aF-20.0
aF-21.0
aF-20.0
aF-20.0
aF-19.0
aF-21.0
aF-18.0
aF-21.0
aF-21.0
aF-21.0
aF-21.0
aF-20.0
aF-21.0
aF-21.0
aF-21.0
aF-20.0
aF-21.0
aF-21.0
aF-21.0
aF-21.0
aF-21.0
aF-21.0
aF-19.0
aF-21.0
aF-21.0
aF-20.0
aF-21.0
aF-18.0
aF-21.0
aF-21.0
aF-21.0
aF-21.0
aF-21.0
aF-21.0
aF-21.0
aF-21.0
aF-21.0
aF-21.0
aF-21.0
aF-21.0
aF-21.0
aF-21.0
aF-21.0
aF-21.0
aF-21.0
aF-21.0
aF-21.0
aF-21.0
aF-19.0
aF-20.0
aF-20.0
aF-21.0
aF-19.0
aF-21.0
aF-21.0
aF-20.0
aF-21.0
aF-20.0
aF-21.0
aF-21.0
aF-21.0
aF-19.0
aF-21.0
aF-21.0
aF-21.0
aF-21.0
aF-20.0
aF-20.0
aF-21.0
aF-21.0
aF-19.0
aF-21.0
aF-21.0
aF-20.0
aF-19.0
aF-21.0
aF-21.0
aF-21.0
aF-21.0
aF-20.0
aF-19.0
aF-19.0
aF-20.0
aF-20.0
aF-19.0
aF-21.0
aF-21.0
aF-20.0
aF-20.0
aF-21.0
aF-21.0
aF-21.0
aF-20.0
aF-20.0
aF-19.0
aF-21.0
aF-19.0
aF-20.0
aF-19.0
aF-21.0
aF-21.0
aF-21.0
aF-21.0
aF-19.0
aF-20.0
aF-20.0
aF-20.0
aF-21.0
aF-21.0
aF-21.0
aF-20.0
aF-21.0
aF-21.0
aF-18.0
aF-21.0
aF-21.0
aF-20.0
aF-21.0
aF-21.0
aF-21.0
aF-21.0
aF-19.0
aF-19.0
aF-21.0
aF-19.0
aF-21.0
aF-20.0
aF-18.0
aF-20.0
aF-21.0
aF-20.0
aF-20.0
aF-21.0
aF-19.0
aF-20.0
aF-21.0
aF-21.0
aF-21.0
aF-20.0
aF-21.0
aF-18.0
aF-20.0
aF-20.0
aF-21.0
aF-20.0
aF-21.0
aF-20.0
aF-18.0
aF-19.0
aF-19.0
aF-19.0
aF-20.0
aF-20.0
aF-21.0
aF-19.0
aF-20.0
aF-20.0
aF-19.0
aF-20.0
aF-17.0
aF-19.0
aF-18.0
aF-18.0
aF-18.0
aF-19.0
aF-16.0
aF-16.0
aF-19.0
aF-20.0
aF-17.0
aF-20.0
aF-21.0
aF-19.0
aF-17.0
aF-18.0
aF-18.0
aF-18.0
aF-18.0
aF-18.0
aF-17.0
aF-17.0
aF-17.0
aF-18.0
aF-17.0
aF-17.0
aF-10.0
aF-16.0
aF-16.0
aF-17.0
aF-16.0
aF-14.0
aF-19.0
aF-13.0
aF-13.0
aF-16.0
aF-19.0
aF-18.0
aF-17.0
aF-14.0
aF-15.0
aF-20.0
aF-17.0
aF-17.0
aF-18.0
aF-18.0
aF-15.0
aF-16.0
aF-18.0
aF-18.0
aF-15.0
aF-19.0
aF-18.0
aF-8.0
aF-13.0
aF-17.0
aF-12.0
aF-20.0
aF-7.0
aF-18.0
aF-16.0
aF-16.0
aF-13.0
aF-15.0
aF-9.0
aF-10.0
aF-13.0
aF-16.0
aF-13.0
aF-17.0
aF1.0
aF-7.0
aF-15.0
aF-13.0
aF-13.0
aF-12.0
aF-15.0
aF-16.0
aF-18.0
aF-7.0
aF-6.0
aF-4.0
aF-7.0
aF-16.0
aF-16.0
aF-16.0
aF-11.0
aF-13.0
aF-13.0
aF-11.0
aF-3.0
aF-12.0
aF-20.0
aF-16.0
aF-21.0
aF-15.0
aF-13.0
aF-18.0
aF-14.0
aF-15.0
aF-14.0
aF-15.0
aF-8.0
aF3.0
aF2.0
aF-6.0
aF-14.0
aF-19.0
aF-11.0
aF-10.0
aF-18.0
aF-17.0
aF-14.0
aF-17.0
aF-20.0
aF-6.0
aF1.0
aF-2.0
aF-2.0
aF-14.0
aF-15.0
aF-6.0
aF-5.0
aF-7.0
aF-13.0
aF2.0
aF-9.0
aF-16.0
aF-2.0
aF3.0
aF-8.0
aF-17.0
aF-17.0
aF-7.0
aF-15.0
aF-1.0
aF-15.0
aF-6.0
aF-11.0
aF-11.0
aF5.0
aF-8.0
aF-12.0
aF-10.0
aF3.0
aF-10.0
aF-1.0
aF-4.0
aF-11.0
aF-12.0
aF-4.0
aF-9.0
aF-9.0
aF1.0
aF-6.0
aF-2.0
aF-7.0
aF-5.0
aF-3.0
aF-12.0
aF-6.0
aF-9.0
aF-11.0
aF-9.0
aF-4.0
aF-5.0
aF-1.0
aF-12.0
aF-6.0
aF-2.0
aF-1.0
aF-14.0
aF-6.0
aF-7.0
aF8.0
aF2.0
aF2.0
aF8.0
aF-15.0
aF-11.0
aF7.0
aF6.0
aF-2.0
aF-3.0
aF1.0
aF9.0
aF-8.0
aF8.0
aF9.0
aF-4.0
aF-14.0
aF9.0
aF-5.0
aF8.0
aF-9.0
aF-5.0
aF-4.0
aF8.0
aF4.0
aF2.0
aF3.0
aF-11.0
aF13.0
aF-3.0
aF1.0
aF7.0
aF9.0
aF11.0
aF17.0
aF21.0
aF12.0
aF16.0
aF2.0
aF3.0
aF-11.0
aF6.0
aF-6.0
aF13.0
aF8.0
aF-4.0
aF9.0
aF-9.0
aF17.0
aF15.0
aF-3.0
aF18.0
aF10.0
aF13.0
aF14.0
aF18.0
aF18.0
aF20.0
aF14.0
aF12.0
aF7.0
aF4.0
aF11.0
aF10.0
aF18.0
aF20.0
aF15.0
aF19.0
aF15.0
aF20.0
aF14.0
aF13.0
aF20.0
aF7.0
aF21.0
aF14.0
aF14.0
aF14.0
aF21.0
aF15.0
aF18.0
aF17.0
aF11.0
aF-4.0
aF15.0
aF13.0
aF4.0
aF10.0
aF18.0
aF16.0
aF17.0
aF12.0
aF17.0
aF16.0
aF15.0
aF21.0
aF19.0
aF21.0
aF18.0
aF15.0
aF19.0
aF18.0
aF21.0
aF16.0
aF20.0
aF8.0
aF20.0
aF16.0
aF19.0
aF19.0
aF15.0
aF17.0
aF21.0
aF15.0
aF20.0
aF17.0
aF15.0
aF16.0
aF18.0
aF16.0
aF21.0
aF20.0
aF21.0
aF13.0
aF16.0
aF15.0
aF18.0
aF20.0
aF17.0
aF20.0
aF18.0
aF15.0
aF21.0
aF19.0
aF17.0
aF17.0
aF21.0
aF18.0
aF18.0
aF19.0
aF20.0
aF18.0
aF15.0
aF21.0
aag560
ag560
ag560
ag560
ag560
ag560
ag560
ag560
ag560
ag560
ag560
ag560
ag560
ag560
ag560
ag560
ag560
ag560
ag560
ag560
ag560
ag560
ag560
ag560
ag560
ag560
ag560
ag560
ag560
ag560
ag560
ag560
ag560
ag560
ag560
ag560
ag560
ag560
ag560
ag560
ag560
ag560
ag560
ag560
ag560
ag560
ag560
ag560
ag560
ag560
ag560
ag560
ag560
ag560
ag560
ag560
ag560
ag560
ag560
ag560
ag560
ag560
ag560
ag560
ag560
ag560
ag560
ag560
ag560
ag560
ag560
ag560
ag560
ag560
ag560
ag560
ag560
ag560
ag560
ag560
ag560
ag560
ag560
ag560
ag560
ag560
ag560
ag560
ag560
ag560
ag560
ag560
ag560
ag560
as.