(dp0
S't_log'
p1
(lp2
I60000
aI70000
aI80000
aI90000
aI100000
aI110000
aI120000
aI130000
aI140000
aI150000
aI160000
aI170000
aI180000
aI190000
aI200000
aI210000
aI220000
aI230000
aI240000
aI250000
aI260000
aI270000
aI280000
aI290000
aI300000
aI310000
aI320000
aI330000
aI340000
aI350000
aI360000
aI370000
aI380000
aI390000
aI400000
aI410000
aI420000
aI430000
aI440000
aI450000
aI460000
aI470000
aI480000
aI490000
aI500000
aI510000
aI520000
aI530000
aI540000
aI550000
aI560000
aI570000
aI580000
aI590000
aI600000
aI610000
aI620000
aI630000
aI640000
aI650000
aI660000
aI670000
aI680000
aI690000
aI700000
aI710000
aI720000
aI730000
aI740000
aI750000
aI760000
aI770000
aI780000
aI790000
aI800000
aI810000
aI820000
aI830000
aI840000
aI850000
aI860000
aI870000
aI880000
aI890000
aI900000
aI910000
aI920000
aI930000
aI940000
aI950000
aI960000
aI970000
aI980000
aI990000
aI1000000
aI1010000
aI1020000
aI1030000
aI1040000
aI1050000
aI1060000
aI1070000
aI1080000
aI1090000
aI1100000
aI1110000
aI1120000
aI1130000
aI1140000
aI1150000
aI1160000
aI1170000
aI1180000
aI1190000
aI1200000
aI1210000
aI1220000
aI1230000
aI1240000
aI1250000
aI1260000
aI1270000
aI1280000
aI1290000
aI1300000
aI1310000
aI1320000
aI1330000
aI1340000
aI1350000
aI1360000
aI1370000
aI1380000
aI1390000
aI1400000
aI1410000
aI1420000
aI1430000
aI1440000
aI1450000
aI1460000
aI1470000
aI1480000
aI1490000
aI1500000
aI1510000
aI1520000
aI1530000
aI1540000
aI1550000
aI1560000
aI1570000
aI1580000
aI1590000
aI1600000
aI1610000
aI1620000
aI1630000
aI1640000
aI1650000
aI1660000
aI1670000
aI1680000
aI1690000
aI1700000
aI1710000
aI1720000
aI1730000
aI1740000
aI1750000
aI1760000
aI1770000
aI1780000
aI1790000
aI1800000
aI1810000
aI1820000
aI1830000
aI1840000
aI1850000
aI1860000
aI1870000
aI1880000
aI1890000
aI1900000
aI1910000
aI1920000
aI1930000
aI1940000
aI1950000
aI1960000
aI1970000
aI1980000
aI1990000
aI2000000
aI2010000
aI2020000
aI2030000
aI2040000
aI2050000
aI2060000
aI2070000
aI2080000
aI2090000
aI2100000
aI2110000
aI2120000
aI2130000
aI2140000
aI2150000
aI2160000
aI2170000
aI2180000
aI2190000
aI2200000
aI2210000
aI2220000
aI2230000
aI2240000
aI2250000
aI2260000
aI2270000
aI2280000
aI2290000
aI2300000
aI2310000
aI2320000
aI2330000
aI2340000
aI2350000
aI2360000
aI2370000
aI2380000
aI2390000
aI2400000
aI2410000
aI2420000
aI2430000
aI2440000
aI2450000
aI2460000
aI2470000
aI2480000
aI2490000
aI2500000
aI2510000
aI2520000
aI2530000
aI2540000
aI2550000
aI2560000
aI2570000
aI2580000
aI2590000
aI2600000
aI2610000
aI2620000
aI2630000
aI2640000
aI2650000
aI2660000
aI2670000
aI2680000
aI2690000
aI2700000
aI2710000
aI2720000
aI2730000
aI2740000
aI2750000
aI2760000
aI2770000
aI2780000
aI2790000
aI2800000
aI2810000
aI2820000
aI2830000
aI2840000
aI2850000
aI2860000
aI2870000
aI2880000
aI2890000
aI2900000
aI2910000
aI2920000
aI2930000
aI2940000
aI2950000
aI2960000
aI2970000
aI2980000
aI2990000
aI3000000
aI3010000
aI3020000
aI3030000
aI3040000
aI3050000
aI3060000
aI3070000
aI3080000
aI3090000
aI3100000
aI3110000
aI3120000
aI3130000
aI3140000
aI3150000
aI3160000
aI3170000
aI3180000
aI3190000
aI3200000
aI3210000
aI3220000
aI3230000
aI3240000
aI3250000
aI3260000
aI3270000
aI3280000
aI3290000
aI3300000
aI3310000
aI3320000
aI3330000
aI3340000
aI3350000
aI3360000
aI3370000
aI3380000
aI3390000
aI3400000
asS'mean_reward_log'
p3
(lp4
cnumpy.core.multiarray
scalar
p5
(cnumpy
dtype
p6
(S'f8'
p7
I0
I1
tp8
Rp9
(I3
S'<'
p10
NNNI-1
I-1
I0
tp11
bS'\xd1E\x17]tQ4\xc0'
p12
tp13
Rp14
ag5
(g9
S'\xc4Y\xf9\tqV4\xc0'
p15
tp16
Rp17
ag5
(g9
S'\x8c.\xba\xe8\xa2k4\xc0'
p18
tp19
Rp20
ag5
(g9
S'm\xb2\xc9&\x9bl4\xc0'
p21
tp22
Rp23
ag5
(g9
S'\xf6(\\\x8f\xc2u4\xc0'
p24
tp25
Rp26
ag5
(g9
S'\xc3\xf5(\\\x8f\x824\xc0'
p27
tp28
Rp29
ag5
(g9
S'\xc3\xf5(\\\x8f\x824\xc0'
p30
tp31
Rp32
ag5
(g9
S'\xb8\x1e\x85\xebQx4\xc0'
p33
tp34
Rp35
ag5
(g9
S'\x00\x00\x00\x00\x00\x804\xc0'
p36
tp37
Rp38
ag5
(g9
S'\xb8\x1e\x85\xebQx4\xc0'
p39
tp40
Rp41
ag5
(g9
S'\xaeG\xe1z\x14n4\xc0'
p42
tp43
Rp44
ag5
(g9
S'\x1f\x85\xebQ\xb8^4\xc0'
p45
tp46
Rp47
ag5
(g9
S'\n\xd7\xa3p=J4\xc0'
p48
tp49
Rp50
ag5
(g9
S'\xb8\x1e\x85\xebQ84\xc0'
p51
tp52
Rp53
ag5
(g9
S'\x8f\xc2\xf5(\\\x0f4\xc0'
p54
tp55
Rp56
ag5
(g9
S'fffff\xe63\xc0'
p57
tp58
Rp59
ag5
(g9
S'\xb8\x1e\x85\xebQ\xb83\xc0'
p60
tp61
Rp62
ag5
(g9
S'\x14\xaeG\xe1z\x943\xc0'
p63
tp64
Rp65
ag5
(g9
S'\xcd\xcc\xcc\xcc\xccL3\xc0'
p66
tp67
Rp68
ag5
(g9
S'\x85\xebQ\xb8\x1e\x053\xc0'
p69
tp70
Rp71
ag5
(g9
S'R\xb8\x1e\x85\xeb\xd12\xc0'
p72
tp73
Rp74
ag5
(g9
S')\\\x8f\xc2\xf5\xa82\xc0'
p75
tp76
Rp77
ag5
(g9
S'\x00\x00\x00\x00\x00\x802\xc0'
p78
tp79
Rp80
ag5
(g9
S'q=\n\xd7\xa302\xc0'
p81
tp82
Rp83
ag5
(g9
S'\xecQ\xb8\x1e\x85\xeb1\xc0'
p84
tp85
Rp86
ag5
(g9
S'\\\x8f\xc2\xf5(\x9c1\xc0'
p87
tp88
Rp89
ag5
(g9
S'q=\n\xd7\xa3p1\xc0'
p90
tp91
Rp92
ag5
(g9
S'\x8f\xc2\xf5(\\\x0f1\xc0'
p93
tp94
Rp95
ag5
(g9
S'\n\xd7\xa3p=\xca0\xc0'
p96
tp97
Rp98
ag5
(g9
S'\x85\xebQ\xb8\x1e\x850\xc0'
p99
tp100
Rp101
ag5
(g9
S'{\x14\xaeG\xe1:0\xc0'
p102
tp103
Rp104
ag5
(g9
S'=\n\xd7\xa3p\xbd/\xc0'
p105
tp106
Rp107
ag5
(g9
S'\xd7\xa3p=\nW/\xc0'
p108
tp109
Rp110
ag5
(g9
S'\xcd\xcc\xcc\xcc\xcc\xcc.\xc0'
p111
tp112
Rp113
ag5
(g9
S'\n\xd7\xa3p=\x8a.\xc0'
p114
tp115
Rp116
ag5
(g9
S'333333.\xc0'
p117
tp118
Rp119
ag5
(g9
S'\xaeG\xe1z\x14.-\xc0'
p120
tp121
Rp122
ag5
(g9
S'H\xe1z\x14\xae\xc7,\xc0'
p123
tp124
Rp125
ag5
(g9
S'\\\x8f\xc2\xf5(\\,\xc0'
p126
tp127
Rp128
ag5
(g9
S'\xcd\xcc\xcc\xcc\xcc\xcc+\xc0'
p129
tp130
Rp131
ag5
(g9
S'\x14\xaeG\xe1z\x14+\xc0'
p132
tp133
Rp134
ag5
(g9
S'\x14\xaeG\xe1z\x94*\xc0'
p135
tp136
Rp137
ag5
(g9
S'fffff\xe6)\xc0'
p138
tp139
Rp140
ag5
(g9
S'333333)\xc0'
p141
tp142
Rp143
ag5
(g9
S'\x8f\xc2\xf5(\\\x0f)\xc0'
p144
tp145
Rp146
ag5
(g9
S'\x9a\x99\x99\x99\x99\x99(\xc0'
p147
tp148
Rp149
ag5
(g9
S'\xaeG\xe1z\x14.(\xc0'
p150
tp151
Rp152
ag5
(g9
S"\xcd\xcc\xcc\xcc\xccL'\xc0"
p153
tp154
Rp155
ag5
(g9
S'q=\n\xd7\xa3p&\xc0'
p156
tp157
Rp158
ag5
(g9
S'q=\n\xd7\xa3\xf0%\xc0'
p159
tp160
Rp161
ag5
(g9
S'\xd7\xa3p=\nW%\xc0'
p162
tp163
Rp164
ag5
(g9
S'\x85\xebQ\xb8\x1e\x05%\xc0'
p165
tp166
Rp167
ag5
(g9
S'R\xb8\x1e\x85\xebQ$\xc0'
p168
tp169
Rp170
ag5
(g9
S'\xecQ\xb8\x1e\x85\xeb#\xc0'
p171
tp172
Rp173
ag5
(g9
S'\x85\xebQ\xb8\x1e\x85#\xc0'
p174
tp175
Rp176
ag5
(g9
S'\x9a\x99\x99\x99\x99\x19#\xc0'
p177
tp178
Rp179
ag5
(g9
S'33333\xb3"\xc0'
p180
tp181
Rp182
ag5
(g9
S'\n\xd7\xa3p=\x8a"\xc0'
p183
tp184
Rp185
ag5
(g9
S'\x00\x00\x00\x00\x00\x80!\xc0'
p186
tp187
Rp188
ag5
(g9
S'H\xe1z\x14\xae\xc7 \xc0'
p189
tp190
Rp191
ag5
(g9
S'{\x14\xaeG\xe1z \xc0'
p192
tp193
Rp194
ag5
(g9
S'\xa4p=\n\xd7\xa3\x1e\xc0'
p195
tp196
Rp197
ag5
(g9
S'\xa4p=\n\xd7\xa3\x1c\xc0'
p198
tp199
Rp200
ag5
(g9
S'\xa4p=\n\xd7\xa3\x1b\xc0'
p201
tp202
Rp203
ag5
(g9
S'\xcd\xcc\xcc\xcc\xcc\xcc\x19\xc0'
p204
tp205
Rp206
ag5
(g9
S'\xaeG\xe1z\x14\xae\x17\xc0'
p207
tp208
Rp209
ag5
(g9
S')\\\x8f\xc2\xf5(\x16\xc0'
p210
tp211
Rp212
ag5
(g9
S'\x9a\x99\x99\x99\x99\x99\x15\xc0'
p213
tp214
Rp215
ag5
(g9
S'\xf6(\\\x8f\xc2\xf5\x12\xc0'
p216
tp217
Rp218
ag5
(g9
S')\\\x8f\xc2\xf5(\x0c\xc0'
p219
tp220
Rp221
ag5
(g9
S'\x8f\xc2\xf5(\\\x8f\x08\xc0'
p222
tp223
Rp224
ag5
(g9
S')\\\x8f\xc2\xf5(\x06\xc0'
p225
tp226
Rp227
ag5
(g9
S'q=\n\xd7\xa3p\x03\xc0'
p228
tp229
Rp230
ag5
(g9
S'\xb8\x1e\x85\xebQ\xb8\xfe\xbf'
p231
tp232
Rp233
ag5
(g9
S'\xecQ\xb8\x1e\x85\xeb\xf1\xbf'
p234
tp235
Rp236
ag5
(g9
S'\xb8\x1e\x85\xebQ\xb8\x9e\xbf'
p237
tp238
Rp239
ag5
(g9
S'\x85\xebQ\xb8\x1e\x85\xdb?'
p240
tp241
Rp242
ag5
(g9
S'\xcd\xcc\xcc\xcc\xcc\xcc\xf8?'
p243
tp244
Rp245
ag5
(g9
S'\x00\x00\x00\x00\x00\x00\x04@'
p246
tp247
Rp248
ag5
(g9
S'\xf6(\\\x8f\xc2\xf5\n@'
p249
tp250
Rp251
ag5
(g9
S'\\\x8f\xc2\xf5(\\\x11@'
p252
tp253
Rp254
ag5
(g9
S'\\\x8f\xc2\xf5(\\\x14@'
p255
tp256
Rp257
ag5
(g9
S'\x85\xebQ\xb8\x1e\x85\x16@'
p258
tp259
Rp260
ag5
(g9
S'H\xe1z\x14\xaeG\x1a@'
p261
tp262
Rp263
ag5
(g9
S'\xa4p=\n\xd7\xa3\x1d@'
p264
tp265
Rp266
ag5
(g9
S'\x85\xebQ\xb8\x1e\x85!@'
p267
tp268
Rp269
ag5
(g9
S'\x14\xaeG\xe1z\x14#@'
p270
tp271
Rp272
ag5
(g9
S'H\xe1z\x14\xae\xc7$@'
p273
tp274
Rp275
ag5
(g9
S')\\\x8f\xc2\xf5(&@'
p276
tp277
Rp278
ag5
(g9
S"\xc3\xf5(\\\x8f\xc2'@"
p279
tp280
Rp281
ag5
(g9
S'\x1f\x85\xebQ\xb8\x9e)@'
p282
tp283
Rp284
ag5
(g9
S'\x1f\x85\xebQ\xb8\x1e+@'
p285
tp286
Rp287
ag5
(g9
S'{\x14\xaeG\xe1z,@'
p288
tp289
Rp290
ag5
(g9
S'q=\n\xd7\xa3\xf0,@'
p291
tp292
Rp293
ag5
(g9
S'33333\xb3.@'
p294
tp295
Rp296
ag5
(g9
S'\xd7\xa3p=\n\xd7/@'
p297
tp298
Rp299
ag5
(g9
S'fffff&0@'
p300
tp301
Rp302
ag5
(g9
S'fffff&0@'
p303
tp304
Rp305
ag5
(g9
S'\\\x8f\xc2\xf5(\\0@'
p306
tp307
Rp308
ag5
(g9
S'\xa4p=\n\xd7\xa30@'
p309
tp310
Rp311
ag5
(g9
S'\x9a\x99\x99\x99\x99\x990@'
p312
tp313
Rp314
ag5
(g9
S'\xcd\xcc\xcc\xcc\xcc\xcc0@'
p315
tp316
Rp317
ag5
(g9
S'\xe1z\x14\xaeG\xe10@'
p318
tp319
Rp320
ag5
(g9
S'H\xe1z\x14\xaeG1@'
p321
tp322
Rp323
ag5
(g9
S'H\xe1z\x14\xae\x871@'
p324
tp325
Rp326
ag5
(g9
S'\xa4p=\n\xd7\xa31@'
p327
tp328
Rp329
ag5
(g9
S'{\x14\xaeG\xe1z1@'
p330
tp331
Rp332
ag5
(g9
S'33333s1@'
p333
tp334
Rp335
ag5
(g9
S'=\n\xd7\xa3p}1@'
p336
tp337
Rp338
ag5
(g9
S'=\n\xd7\xa3p}1@'
p339
tp340
Rp341
ag5
(g9
S'=\n\xd7\xa3p}1@'
p342
tp343
Rp344
ag5
(g9
S'=\n\xd7\xa3p}1@'
p345
tp346
Rp347
ag5
(g9
S'\xa4p=\n\xd7c1@'
p348
tp349
Rp350
ag5
(g9
S'\x14\xaeG\xe1zT1@'
p351
tp352
Rp353
ag5
(g9
S'\x14\xaeG\xe1zT1@'
p354
tp355
Rp356
ag5
(g9
S'\xf6(\\\x8f\xc251@'
p357
tp358
Rp359
ag5
(g9
S'\x1f\x85\xebQ\xb8\x1e1@'
p360
tp361
Rp362
ag5
(g9
S'fffff&1@'
p363
tp364
Rp365
ag5
(g9
S'\x85\xebQ\xb8\x1eE1@'
p366
tp367
Rp368
ag5
(g9
S'\x00\x00\x00\x00\x00@1@'
p369
tp370
Rp371
ag5
(g9
S'\x1f\x85\xebQ\xb8^1@'
p372
tp373
Rp374
ag5
(g9
S'H\xe1z\x14\xaeG1@'
p375
tp376
Rp377
ag5
(g9
S'\xd7\xa3p=\nW1@'
p378
tp379
Rp380
ag5
(g9
S'R\xb8\x1e\x85\xebQ1@'
p381
tp382
Rp383
ag5
(g9
S'\x14\xaeG\xe1zT1@'
p384
tp385
Rp386
ag5
(g9
S'R\xb8\x1e\x85\xebQ1@'
p387
tp388
Rp389
ag5
(g9
S'\xcd\xcc\xcc\xcc\xccL1@'
p390
tp391
Rp392
ag5
(g9
S'=\n\xd7\xa3p=1@'
p393
tp394
Rp395
ag5
(g9
S'\xecQ\xb8\x1e\x85k1@'
p396
tp397
Rp398
ag5
(g9
S'\x9a\x99\x99\x99\x99Y1@'
p399
tp400
Rp401
ag5
(g9
S'\x14\xaeG\xe1zT1@'
p402
tp403
Rp404
ag5
(g9
S'\x1f\x85\xebQ\xb8^1@'
p405
tp406
Rp407
ag5
(g9
S'\xc3\xf5(\\\x8f\x821@'
p408
tp409
Rp410
ag5
(g9
S'\xcd\xcc\xcc\xcc\xcc\x8c1@'
p411
tp412
Rp413
ag5
(g9
S'\xaeG\xe1z\x14\xae1@'
p414
tp415
Rp416
ag5
(g9
S'33333\xb31@'
p417
tp418
Rp419
ag5
(g9
S'\xcd\xcc\xcc\xcc\xcc\xcc1@'
p420
tp421
Rp422
ag5
(g9
S'\xc3\xf5(\\\x8f\xc21@'
p423
tp424
Rp425
ag5
(g9
S'\\\x8f\xc2\xf5(\xdc1@'
p426
tp427
Rp428
ag5
(g9
S'\xd7\xa3p=\n\xd71@'
p429
tp430
Rp431
ag5
(g9
S'=\n\xd7\xa3p\xfd1@'
p432
tp433
Rp434
ag5
(g9
S'\x00\x00\x00\x00\x00\x002@'
p435
tp436
Rp437
ag5
(g9
S'\x8f\xc2\xf5(\\\x0f2@'
p438
tp439
Rp440
ag5
(g9
S'\xd7\xa3p=\n\x172@'
p441
tp442
Rp443
ag5
(g9
S'\x14\xaeG\xe1z\x142@'
p444
tp445
Rp446
ag5
(g9
S'H\xe1z\x14\xae\x072@'
p447
tp448
Rp449
ag5
(g9
S'R\xb8\x1e\x85\xeb\x112@'
p450
tp451
Rp452
ag5
(g9
S'\xd7\xa3p=\n\x172@'
p453
tp454
Rp455
ag5
(g9
S'\x9a\x99\x99\x99\x99\x192@'
p456
tp457
Rp458
ag5
(g9
S'\n\xd7\xa3p=\n2@'
p459
tp460
Rp461
ag5
(g9
S'\xa4p=\n\xd7#2@'
p462
tp463
Rp464
ag5
(g9
S'\xa4p=\n\xd7#2@'
p465
tp466
Rp467
ag5
(g9
S'\xc3\xf5(\\\x8f\x022@'
p468
tp469
Rp470
ag5
(g9
S'\x8f\xc2\xf5(\\\xcf1@'
p471
tp472
Rp473
ag5
(g9
S'\xc3\xf5(\\\x8f\xc21@'
p474
tp475
Rp476
ag5
(g9
S')\\\x8f\xc2\xf5\xa81@'
p477
tp478
Rp479
ag5
(g9
S'fffff\xa61@'
p480
tp481
Rp482
ag5
(g9
S'\\\x8f\xc2\xf5(\x9c1@'
p483
tp484
Rp485
ag5
(g9
S'\xecQ\xb8\x1e\x85\xab1@'
p486
tp487
Rp488
ag5
(g9
S'R\xb8\x1e\x85\xeb\x911@'
p489
tp490
Rp491
ag5
(g9
S'R\xb8\x1e\x85\xeb\x911@'
p492
tp493
Rp494
ag5
(g9
S'\xd7\xa3p=\n\x971@'
p495
tp496
Rp497
ag5
(g9
S'\x8f\xc2\xf5(\\\x8f1@'
p498
tp499
Rp500
ag5
(g9
S'\x1f\x85\xebQ\xb8\x9e1@'
p501
tp502
Rp503
ag5
(g9
S'\xc3\xf5(\\\x8f\x821@'
p504
tp505
Rp506
ag5
(g9
S'\x8f\xc2\xf5(\\\x8f1@'
p507
tp508
Rp509
ag5
(g9
S'\xc3\xf5(\\\x8f\x821@'
p510
tp511
Rp512
ag5
(g9
S'\x00\x00\x00\x00\x00\x801@'
p513
tp514
Rp515
ag5
(g9
S'\\\x8f\xc2\xf5(\x9c1@'
p516
tp517
Rp518
ag5
(g9
S'\xe1z\x14\xaeG\xa11@'
p519
tp520
Rp521
ag5
(g9
S'\xaeG\xe1z\x14\xae1@'
p522
tp523
Rp524
ag5
(g9
S'{\x14\xaeG\xe1\xba1@'
p525
tp526
Rp527
ag5
(g9
S'\x85\xebQ\xb8\x1e\xc51@'
p528
tp529
Rp530
ag5
(g9
S'\x1f\x85\xebQ\xb8\xde1@'
p531
tp532
Rp533
ag5
(g9
S'\x85\xebQ\xb8\x1e\x052@'
p534
tp535
Rp536
ag5
(g9
S'\xe1z\x14\xaeG!2@'
p537
tp538
Rp539
ag5
(g9
S'\x1f\x85\xebQ\xb8\x1e2@'
p540
tp541
Rp542
ag5
(g9
S'H\xe1z\x14\xaeG2@'
p543
tp544
Rp545
ag5
(g9
S'R\xb8\x1e\x85\xebQ2@'
p546
tp547
Rp548
ag5
(g9
S'q=\n\xd7\xa3p2@'
p549
tp550
Rp551
ag5
(g9
S'\x9a\x99\x99\x99\x99Y2@'
p552
tp553
Rp554
ag5
(g9
S'\x14\xaeG\xe1zT2@'
p555
tp556
Rp557
ag5
(g9
S'\x00\x00\x00\x00\x00@2@'
p558
tp559
Rp560
ag5
(g9
S'\xecQ\xb8\x1e\x85+2@'
p561
tp562
Rp563
ag5
(g9
S'H\xe1z\x14\xaeG2@'
p564
tp565
Rp566
ag5
(g9
S'\xb8\x1e\x85\xebQ82@'
p567
tp568
Rp569
ag5
(g9
S'\xf6(\\\x8f\xc252@'
p570
tp571
Rp572
ag5
(g9
S'=\n\xd7\xa3p=2@'
p573
tp574
Rp575
ag5
(g9
S'\xaeG\xe1z\x14.2@'
p576
tp577
Rp578
ag5
(g9
S'\x9a\x99\x99\x99\x99\x192@'
p579
tp580
Rp581
ag5
(g9
S'\x9a\x99\x99\x99\x99\x192@'
p582
tp583
Rp584
ag5
(g9
S'\xaeG\xe1z\x14.2@'
p585
tp586
Rp587
ag5
(g9
S'\xb8\x1e\x85\xebQ82@'
p588
tp589
Rp590
ag5
(g9
S'\xa4p=\n\xd7#2@'
p591
tp592
Rp593
ag5
(g9
S'\x85\xebQ\xb8\x1e\x052@'
p594
tp595
Rp596
ag5
(g9
S'\n\xd7\xa3p=\n2@'
p597
tp598
Rp599
ag5
(g9
S'\xcd\xcc\xcc\xcc\xcc\x0c2@'
p600
tp601
Rp602
ag5
(g9
S'\x00\x00\x00\x00\x00\x002@'
p603
tp604
Rp605
ag5
(g9
S'H\xe1z\x14\xae\xc71@'
p606
tp607
Rp608
ag5
(g9
S'\x85\xebQ\xb8\x1e\xc51@'
p609
tp610
Rp611
ag5
(g9
S'\xd7\xa3p=\n\xd71@'
p612
tp613
Rp614
ag5
(g9
S'\xc3\xf5(\\\x8f\xc21@'
p615
tp616
Rp617
ag5
(g9
S'\x00\x00\x00\x00\x00\xc01@'
p618
tp619
Rp620
ag5
(g9
S'H\xe1z\x14\xae\xc71@'
p621
tp622
Rp623
ag5
(g9
S'33333\xb31@'
p624
tp625
Rp626
ag5
(g9
S'\x14\xaeG\xe1z\xd41@'
p627
tp628
Rp629
ag5
(g9
S'\xc3\xf5(\\\x8f\xc21@'
p630
tp631
Rp632
ag5
(g9
S'R\xb8\x1e\x85\xeb\xd11@'
p633
tp634
Rp635
ag5
(g9
S'\xcd\xcc\xcc\xcc\xcc\xcc1@'
p636
tp637
Rp638
ag5
(g9
S'\xe1z\x14\xaeG\xe11@'
p639
tp640
Rp641
ag5
(g9
S'\x9a\x99\x99\x99\x99\xd91@'
p642
tp643
Rp644
ag5
(g9
S'R\xb8\x1e\x85\xeb\xd11@'
p645
tp646
Rp647
ag5
(g9
S'=\n\xd7\xa3p\xbd1@'
p648
tp649
Rp650
ag5
(g9
S'\xd7\xa3p=\n\xd71@'
p651
tp652
Rp653
ag5
(g9
S'\xcd\xcc\xcc\xcc\xcc\xcc1@'
p654
tp655
Rp656
ag5
(g9
S'\x14\xaeG\xe1z\xd41@'
p657
tp658
Rp659
ag5
(g9
S'\\\x8f\xc2\xf5(\xdc1@'
p660
tp661
Rp662
ag5
(g9
S'q=\n\xd7\xa3\xf01@'
p663
tp664
Rp665
ag5
(g9
S'=\n\xd7\xa3p\xfd1@'
p666
tp667
Rp668
ag5
(g9
S'H\xe1z\x14\xae\x072@'
p669
tp670
Rp671
ag5
(g9
S'\x1f\x85\xebQ\xb8\xde1@'
p672
tp673
Rp674
ag5
(g9
S'\x8f\xc2\xf5(\\\xcf1@'
p675
tp676
Rp677
ag5
(g9
S'\x00\x00\x00\x00\x00\xc01@'
p678
tp679
Rp680
ag5
(g9
S'\n\xd7\xa3p=\xca1@'
p681
tp682
Rp683
ag5
(g9
S'\x8f\xc2\xf5(\\\xcf1@'
p684
tp685
Rp686
ag5
(g9
S'\xcd\xcc\xcc\xcc\xcc\xcc1@'
p687
tp688
Rp689
ag5
(g9
S'\xa4p=\n\xd7\xa31@'
p690
tp691
Rp692
ag5
(g9
S'\xaeG\xe1z\x14\xae1@'
p693
tp694
Rp695
ag5
(g9
S'\xcd\xcc\xcc\xcc\xcc\x8c1@'
p696
tp697
Rp698
ag5
(g9
S'33333s1@'
p699
tp700
Rp701
ag5
(g9
S'\xe1z\x14\xaeGa1@'
p702
tp703
Rp704
ag5
(g9
S'\xcd\xcc\xcc\xcc\xccL1@'
p705
tp706
Rp707
ag5
(g9
S'\x00\x00\x00\x00\x00@1@'
p708
tp709
Rp710
ag5
(g9
S'\xa4p=\n\xd7#1@'
p711
tp712
Rp713
ag5
(g9
S'\x85\xebQ\xb8\x1e\x051@'
p714
tp715
Rp716
ag5
(g9
S'\xc3\xf5(\\\x8f\x021@'
p717
tp718
Rp719
ag5
(g9
S'\xf6(\\\x8f\xc2\xf50@'
p720
tp721
Rp722
ag5
(g9
S'q=\n\xd7\xa3\xf00@'
p723
tp724
Rp725
ag5
(g9
S'\xa4p=\n\xd7\xe30@'
p726
tp727
Rp728
ag5
(g9
S'H\xe1z\x14\xae\xc70@'
p729
tp730
Rp731
ag5
(g9
S'\xb8\x1e\x85\xebQ\xb80@'
p732
tp733
Rp734
ag5
(g9
S'\xaeG\xe1z\x14\xae0@'
p735
tp736
Rp737
ag5
(g9
S'\x9a\x99\x99\x99\x99\xd90@'
p738
tp739
Rp740
ag5
(g9
S')\\\x8f\xc2\xf5\xe80@'
p741
tp742
Rp743
ag5
(g9
S'{\x14\xaeG\xe1\xfa0@'
p744
tp745
Rp746
ag5
(g9
S'\xc3\xf5(\\\x8f\x021@'
p747
tp748
Rp749
ag5
(g9
S'fffff\xe60@'
p750
tp751
Rp752
ag5
(g9
S'\n\xd7\xa3p=\n1@'
p753
tp754
Rp755
ag5
(g9
S'H\xe1z\x14\xae\x071@'
p756
tp757
Rp758
ag5
(g9
S'\x00\x00\x00\x00\x00\x001@'
p759
tp760
Rp761
ag5
(g9
S'\xe1z\x14\xaeG!1@'
p762
tp763
Rp764
ag5
(g9
S')\\\x8f\xc2\xf5(1@'
p765
tp766
Rp767
ag5
(g9
S')\\\x8f\xc2\xf5(1@'
p768
tp769
Rp770
ag5
(g9
S'\xb8\x1e\x85\xebQ81@'
p771
tp772
Rp773
ag5
(g9
S'\xe1z\x14\xaeG!1@'
p774
tp775
Rp776
ag5
(g9
S'\x85\xebQ\xb8\x1eE1@'
p777
tp778
Rp779
ag5
(g9
S'\xc3\xf5(\\\x8fB1@'
p780
tp781
Rp782
ag5
(g9
S'=\n\xd7\xa3p=1@'
p783
tp784
Rp785
ag5
(g9
S'\\\x8f\xc2\xf5(\\1@'
p786
tp787
Rp788
ag5
(g9
S'\xa4p=\n\xd7c1@'
p789
tp790
Rp791
ag5
(g9
S'\xaeG\xe1z\x14n1@'
p792
tp793
Rp794
ag5
(g9
S'\xaeG\xe1z\x14n1@'
p795
tp796
Rp797
ag5
(g9
S'33333s1@'
p798
tp799
Rp800
ag5
(g9
S'\x9a\x99\x99\x99\x99Y1@'
p801
tp802
Rp803
ag5
(g9
S'ffffff1@'
p804
tp805
Rp806
ag5
(g9
S'\x9a\x99\x99\x99\x99Y1@'
p807
tp808
Rp809
ag5
(g9
S'\x85\xebQ\xb8\x1eE1@'
p810
tp811
Rp812
ag5
(g9
S'\\\x8f\xc2\xf5(\\1@'
p813
tp814
Rp815
ag5
(g9
S')\\\x8f\xc2\xf5h1@'
p816
tp817
Rp818
ag5
(g9
S'R\xb8\x1e\x85\xeb\x911@'
p819
tp820
Rp821
ag5
(g9
S'\x00\x00\x00\x00\x00\x801@'
p822
tp823
Rp824
ag5
(g9
S'33333s1@'
p825
tp826
Rp827
ag5
(g9
S'ffffff1@'
p828
tp829
Rp830
ag5
(g9
S'\xecQ\xb8\x1e\x85k1@'
p831
tp832
Rp833
ag5
(g9
S'\xecQ\xb8\x1e\x85k1@'
p834
tp835
Rp836
ag5
(g9
S'\x8f\xc2\xf5(\\\x8f1@'
p837
tp838
Rp839
ag5
(g9
S'\x8f\xc2\xf5(\\\x8f1@'
p840
tp841
Rp842
ag5
(g9
S'\xd7\xa3p=\n\x971@'
p843
tp844
Rp845
ag5
(g9
S'\xecQ\xb8\x1e\x85\xab1@'
p846
tp847
Rp848
ag5
(g9
S')\\\x8f\xc2\xf5\xa81@'
p849
tp850
Rp851
ag5
(g9
S'\x1f\x85\xebQ\xb8\x9e1@'
p852
tp853
Rp854
ag5
(g9
S'\x1f\x85\xebQ\xb8\x9e1@'
p855
tp856
Rp857
ag5
(g9
S')\\\x8f\xc2\xf5\xa81@'
p858
tp859
Rp860
ag5
(g9
S'\xecQ\xb8\x1e\x85\xab1@'
p861
tp862
Rp863
ag5
(g9
S'{\x14\xaeG\xe1\xba1@'
p864
tp865
Rp866
ag5
(g9
S'{\x14\xaeG\xe1\xba1@'
p867
tp868
Rp869
ag5
(g9
S'\xe1z\x14\xaeG\xa11@'
p870
tp871
Rp872
ag5
(g9
S'\xe1z\x14\xaeG\xa11@'
p873
tp874
Rp875
ag5
(g9
S'\n\xd7\xa3p=\x8a1@'
p876
tp877
Rp878
ag5
(g9
S'\xf6(\\\x8f\xc2u1@'
p879
tp880
Rp881
ag5
(g9
S'\xc3\xf5(\\\x8f\x821@'
p882
tp883
Rp884
ag5
(g9
S'R\xb8\x1e\x85\xeb\x911@'
p885
tp886
Rp887
ag5
(g9
S'\xcd\xcc\xcc\xcc\xcc\x8c1@'
p888
tp889
Rp890
ag5
(g9
S'\x8f\xc2\xf5(\\\x8f1@'
p891
tp892
Rp893
ag5
(g9
S'33333s1@'
p894
tp895
Rp896
ag5
(g9
S'q=\n\xd7\xa3p1@'
p897
tp898
Rp899
ag5
(g9
S'ffffff1@'
p900
tp901
Rp902
ag5
(g9
S'\xaeG\xe1z\x14n1@'
p903
tp904
Rp905
ag5
(g9
S'\xd7\xa3p=\nW1@'
p906
tp907
Rp908
ag5
(g9
S'\x8f\xc2\xf5(\\O1@'
p909
tp910
Rp911
ag5
(g9
S'\x00\x00\x00\x00\x00@1@'
p912
tp913
Rp914
ag5
(g9
S'\xb8\x1e\x85\xebQ81@'
p915
tp916
Rp917
ag5
(g9
S')\\\x8f\xc2\xf5(1@'
p918
tp919
Rp920
ag5
(g9
S'\xecQ\xb8\x1e\x85+1@'
p921
tp922
Rp923
ag5
(g9
S'\xcd\xcc\xcc\xcc\xcc\x0c1@'
p924
tp925
Rp926
ag5
(g9
S'\x14\xaeG\xe1z\x141@'
p927
tp928
Rp929
ag5
(g9
S'\x1f\x85\xebQ\xb8\x1e1@'
p930
tp931
Rp932
ag5
(g9
S'\xaeG\xe1z\x14.1@'
p933
tp934
Rp935
ag5
(g9
S'3333331@'
p936
tp937
Rp938
ag5
(g9
S'\xaeG\xe1z\x14.1@'
p939
tp940
Rp941
ag5
(g9
S'\x1f\x85\xebQ\xb8\x1e1@'
p942
tp943
Rp944
ag5
(g9
S'\x9a\x99\x99\x99\x99\x191@'
p945
tp946
Rp947
ag5
(g9
S'\xd7\xa3p=\n\x171@'
p948
tp949
Rp950
ag5
(g9
S')\\\x8f\xc2\xf5(1@'
p951
tp952
Rp953
ag5
(g9
S'\xf6(\\\x8f\xc251@'
p954
tp955
Rp956
ag5
(g9
S'\x00\x00\x00\x00\x00@1@'
p957
tp958
Rp959
ag5
(g9
S'\xe1z\x14\xaeGa1@'
p960
tp961
Rp962
ag5
(g9
S')\\\x8f\xc2\xf5h1@'
p963
tp964
Rp965
ag5
(g9
S'\x9a\x99\x99\x99\x99Y1@'
p966
tp967
Rp968
ag5
(g9
S'ffffff1@'
p969
tp970
Rp971
ag5
(g9
S'\x00\x00\x00\x00\x00\x801@'
p972
tp973
Rp974
ag5
(g9
S'\xaeG\xe1z\x14n1@'
p975
tp976
Rp977
ag5
(g9
S'\n\xd7\xa3p=\x8a1@'
p978
tp979
Rp980
ag5
(g9
S'\x9a\x99\x99\x99\x99\x991@'
p981
tp982
Rp983
ag5
(g9
S'\n\xd7\xa3p=\x8a1@'
p984
tp985
Rp986
ag5
(g9
S'\xcd\xcc\xcc\xcc\xcc\x8c1@'
p987
tp988
Rp989
ag5
(g9
S'33333s1@'
p990
tp991
Rp992
ag5
(g9
S'\xa4p=\n\xd7c1@'
p993
tp994
Rp995
ag5
(g9
S'\xa4p=\n\xd7c1@'
p996
tp997
Rp998
ag5
(g9
S'\xaeG\xe1z\x14n1@'
p999
tp1000
Rp1001
ag5
(g9
S'\x00\x00\x00\x00\x00\x801@'
p1002
tp1003
Rp1004
ag5
(g9
S'\xecQ\xb8\x1e\x85k1@'
p1005
tp1006
Rp1007
ag5
(g9
S'\xaeG\xe1z\x14n1@'
p1008
tp1009
Rp1010
ag5
(g9
S'33333s1@'
p1011
tp1012
Rp1013
ag5
(g9
S'\\\x8f\xc2\xf5(\\1@'
p1014
tp1015
Rp1016
asS'learning_rate_log'
p1017
(lp1018
F0.0001
aF0.0001
aF0.0001
aF0.0001
aF0.0001
aF0.0001
aF0.0001
aF0.0001
aF0.0001
aF0.0001
aF0.0001
aF0.0001
aF0.0001
aF0.0001
aF0.0001
aF0.0001
aF0.0001
aF0.0001
aF0.0001
aF0.0001
aF0.0001
aF0.0001
aF0.0001
aF0.0001
aF0.0001
aF0.0001
aF0.0001
aF0.0001
aF0.0001
aF0.0001
aF0.0001
aF0.0001
aF0.0001
aF0.0001
aF0.0001
aF0.0001
aF0.0001
aF0.0001
aF0.0001
aF0.0001
aF0.0001
aF0.0001
aF0.0001
aF0.0001
aF0.0001
aF0.0001
aF0.0001
aF0.0001
aF0.0001
aF0.0001
aF0.0001
aF0.0001
aF0.0001
aF0.0001
aF0.0001
aF0.0001
aF0.0001
aF0.0001
aF0.0001
aF0.0001
aF0.0001
aF0.0001
aF0.0001
aF0.0001
aF0.0001
aF0.0001
aF0.0001
aF0.0001
aF0.0001
aF0.0001
aF0.0001
aF0.0001
aF0.0001
aF0.0001
aF0.0001
aF0.0001
aF0.0001
aF0.0001
aF0.0001
aF0.0001
aF0.0001
aF0.0001
aF0.0001
aF0.0001
aF0.0001
aF0.0001
aF0.0001
aF0.0001
aF0.0001
aF0.0001
aF0.0001
aF0.0001
aF0.0001
aF0.0001
aF0.0001
aF9.9875e-05
aF9.975e-05
aF9.962500000000001e-05
aF9.95e-05
aF9.9375e-05
aF9.925e-05
aF9.912500000000001e-05
aF9.900000000000001e-05
aF9.8875e-05
aF9.875e-05
aF9.8625e-05
aF9.850000000000001e-05
aF9.8375e-05
aF9.825e-05
aF9.8125e-05
aF9.800000000000001e-05
aF9.787500000000001e-05
aF9.775e-05
aF9.7625e-05
aF9.75e-05
aF9.737500000000001e-05
aF9.725e-05
aF9.7125e-05
aF9.7e-05
aF9.687500000000001e-05
aF9.675000000000001e-05
aF9.6625e-05
aF9.65e-05
aF9.6375e-05
aF9.625000000000001e-05
aF9.6125e-05
aF9.6e-05
aF9.5875e-05
aF9.575000000000001e-05
aF9.562500000000001e-05
aF9.55e-05
aF9.5375e-05
aF9.525000000000001e-05
aF9.512500000000001e-05
aF9.5e-05
aF9.4875e-05
aF9.475e-05
aF9.462500000000001e-05
aF9.45e-05
aF9.4375e-05
aF9.425e-05
aF9.412500000000001e-05
aF9.400000000000001e-05
aF9.3875e-05
aF9.375e-05
aF9.3625e-05
aF9.350000000000001e-05
aF9.3375e-05
aF9.325e-05
aF9.3125e-05
aF9.300000000000001e-05
aF9.287500000000001e-05
aF9.275e-05
aF9.2625e-05
aF9.25e-05
aF9.237500000000001e-05
aF9.225e-05
aF9.2125e-05
aF9.2e-05
aF9.1875e-05
aF9.175000000000001e-05
aF9.1625e-05
aF9.15e-05
aF9.137500000000001e-05
aF9.125000000000001e-05
aF9.1125e-05
aF9.1e-05
aF9.0875e-05
aF9.075000000000001e-05
aF9.062500000000001e-05
aF9.05e-05
aF9.0375e-05
aF9.025e-05
aF9.012500000000001e-05
aF9e-05
aF8.9875e-05
aF8.975e-05
aF8.962500000000001e-05
aF8.950000000000001e-05
aF8.9375e-05
aF8.925e-05
aF8.912500000000001e-05
aF8.900000000000001e-05
aF8.8875e-05
aF8.875e-05
aF8.8625e-05
aF8.850000000000001e-05
aF8.837500000000001e-05
aF8.825e-05
aF8.8125e-05
aF8.8e-05
aF8.787500000000001e-05
aF8.775e-05
aF8.7625e-05
aF8.75e-05
aF8.737500000000001e-05
aF8.725e-05
aF8.7125e-05
aF8.7e-05
aF8.687500000000001e-05
aF8.675000000000001e-05
aF8.6625e-05
aF8.65e-05
aF8.6375e-05
aF8.625000000000001e-05
aF8.6125e-05
aF8.6e-05
aF8.5875e-05
aF8.575000000000001e-05
aF8.562500000000001e-05
aF8.55e-05
aF8.5375e-05
aF8.525000000000001e-05
aF8.512500000000001e-05
aF8.5e-05
aF8.4875e-05
aF8.475e-05
aF8.462500000000001e-05
aF8.450000000000001e-05
aF8.4375e-05
aF8.425e-05
aF8.4125e-05
aF8.400000000000001e-05
aF8.3875e-05
aF8.375e-05
aF8.3625e-05
aF8.35e-05
aF8.337500000000001e-05
aF8.325e-05
aF8.3125e-05
aF8.3e-05
aF8.2875e-05
aF8.275e-05
aF8.2625e-05
aF8.25e-05
aF8.237500000000001e-05
aF8.225000000000001e-05
aF8.2125e-05
aF8.2e-05
aF8.1875e-05
aF8.175000000000001e-05
aF8.1625e-05
aF8.15e-05
aF8.1375e-05
aF8.125e-05
aF8.112500000000001e-05
aF8.1e-05
aF8.0875e-05
aF8.075000000000001e-05
aF8.062500000000001e-05
aF8.05e-05
aF8.0375e-05
aF8.025e-05
aF8.012500000000001e-05
aF8e-05
aF7.9875e-05
aF7.975e-05
aF7.9625e-05
aF7.950000000000001e-05
aF7.9375e-05
aF7.925e-05
aF7.912500000000001e-05
aF7.900000000000001e-05
aF7.8875e-05
aF7.875e-05
aF7.8625e-05
aF7.850000000000001e-05
aF7.837500000000001e-05
aF7.825e-05
aF7.8125e-05
aF7.8e-05
aF7.787500000000001e-05
aF7.775e-05
aF7.7625e-05
aF7.75e-05
aF7.7375e-05
aF7.725000000000001e-05
aF7.7125e-05
aF7.7e-05
aF7.6875e-05
aF7.675e-05
aF7.6625e-05
aF7.65e-05
aF7.6375e-05
aF7.625000000000001e-05
aF7.612500000000001e-05
aF7.6e-05
aF7.5875e-05
aF7.575e-05
aF7.562500000000001e-05
aF7.55e-05
aF7.5375e-05
aF7.525e-05
aF7.5125e-05
aF7.500000000000001e-05
aF7.4875e-05
aF7.475e-05
aF7.462500000000001e-05
aF7.45e-05
aF7.4375e-05
aF7.425e-05
aF7.4125e-05
aF7.400000000000001e-05
aF7.3875e-05
aF7.375e-05
aF7.3625e-05
aF7.35e-05
aF7.337500000000001e-05
aF7.325e-05
aF7.3125e-05
aF7.3e-05
aF7.2875e-05
aF7.275e-05
aF7.2625e-05
aF7.25e-05
aF7.237500000000001e-05
aF7.225e-05
aF7.2125e-05
aF7.2e-05
aF7.1875e-05
aF7.175000000000001e-05
aF7.1625e-05
aF7.15e-05
aF7.1375e-05
aF7.125000000000001e-05
aF7.112500000000001e-05
aF7.1e-05
aF7.0875e-05
aF7.075000000000001e-05
aF7.0625e-05
aF7.05e-05
aF7.0375e-05
aF7.025e-05
aF7.0125e-05
aF7.000000000000001e-05
asS'exploration_log'
p1019
(lp1020
F0.011485
aF0.0117325
aF0.011980000000000001
aF0.0122275
aF0.012475
aF0.0127225
aF0.01297
aF0.0132175
aF0.013465000000000001
aF0.013712499999999999
aF0.01396
aF0.014207500000000001
aF0.014454999999999999
aF0.0147025
aF0.014950000000000001
aF0.0151975
aF0.015445
aF0.015692499999999998
aF0.01594
aF0.0161875
aF0.016434999999999998
aF0.0166825
aF0.01693
aF0.017177500000000002
aF0.017425
aF0.0176725
aF0.01792
aF0.018167500000000003
aF0.018415
aF0.0186625
aF0.01891
aF0.0191575
aF0.019405
aF0.0196525
aF0.0199
aF0.0201475
aF0.020395
aF0.0206425
aF0.02089
aF0.0211375
aF0.021385
aF0.0216325
aF0.02188
aF0.0221275
aF0.022375
aF0.022622499999999997
aF0.02287
aF0.0231175
aF0.023365
aF0.0236125
aF0.02386
aF0.0241075
aF0.024355
aF0.0246025
aF0.024849999999999997
aF0.025097500000000002
aF0.025345
aF0.0255925
aF0.025840000000000002
aF0.0260875
aF0.026335000000000004
aF0.026582500000000002
aF0.02683
aF0.027077500000000004
aF0.027325000000000002
aF0.0275725
aF0.027819999999999998
aF0.028067500000000002
aF0.028315
aF0.028562499999999998
aF0.028810000000000002
aF0.0290575
aF0.029304999999999998
aF0.029552500000000002
aF0.0298
aF0.030047499999999998
aF0.030295000000000002
aF0.0305425
aF0.030789999999999998
aF0.031037500000000003
aF0.031285
aF0.0315325
aF0.031779999999999996
aF0.0320275
aF0.032275
aF0.0325225
aF0.03277
aF0.0330175
aF0.033265
aF0.0335125
aF0.03376
aF0.0340075
aF0.034255
aF0.0345025
aF0.03475
aF0.0349975
aF0.035245
aF0.035492499999999996
aF0.03574
aF0.0359875
aF0.036234999999999996
aF0.0364825
aF0.03673
aF0.036977499999999996
aF0.037225
aF0.0374725
aF0.037720000000000004
aF0.0379675
aF0.038215
aF0.038462500000000004
aF0.03871
aF0.0389575
aF0.039205
aF0.0394525
aF0.0397
aF0.0399475
aF0.040195
aF0.0404425
aF0.04069
aF0.0409375
aF0.041185
aF0.041432500000000004
aF0.04168
aF0.0419275
aF0.042175000000000004
aF0.0424225
aF0.04267000000000001
aF0.042917500000000004
aF0.043165
aF0.04341250000000001
aF0.043660000000000004
aF0.0439075
aF0.04415500000000001
aF0.044402500000000004
aF0.04465
aF0.0448975
aF0.045145
aF0.045392499999999995
aF0.04564
aF0.0458875
aF0.046135
aF0.0463825
aF0.04663
aF0.0468775
aF0.047125
aF0.0473725
aF0.04762
aF0.0478675
aF0.048115
aF0.0483625
aF0.04861
aF0.048857500000000005
aF0.049105
aF0.0493525
aF0.049600000000000005
aF0.0498475
aF0.050095
aF0.050342500000000005
aF0.05059
aF0.0508375
aF0.051085000000000005
aF0.0513325
aF0.05158
aF0.051827500000000006
aF0.052075
aF0.05232250000000001
aF0.05257
aF0.052817499999999996
aF0.053065
aF0.0533125
aF0.053559999999999997
aF0.0538075
aF0.054055
aF0.0543025
aF0.05455
aF0.0547975
aF0.055045000000000004
aF0.0552925
aF0.05554
aF0.055787500000000004
aF0.056035
aF0.0562825
aF0.056530000000000004
aF0.0567775
aF0.057025
aF0.057272500000000004
aF0.05752
aF0.0577675
aF0.058015000000000004
aF0.0582625
aF0.058510000000000006
aF0.058757500000000004
aF0.059005
aF0.05925250000000001
aF0.059500000000000004
aF0.0597475
aF0.05999500000000001
aF0.060242500000000004
aF0.060489999999999995
aF0.0607375
aF0.060985
aF0.0612325
aF0.06148
aF0.0617275
aF0.061975
aF0.0622225
aF0.06247
aF0.0627175
aF0.062965
aF0.06321249999999999
aF0.06346
aF0.0637075
aF0.063955
aF0.0642025
aF0.06445
aF0.0646975
aF0.064945
aF0.0651925
aF0.06544
aF0.0656875
aF0.065935
aF0.0661825
aF0.06643
aF0.0666775
aF0.066925
aF0.0671725
aF0.06742000000000001
aF0.0676675
aF0.067915
aF0.0681625
aF0.06841
aF0.0686575
aF0.068905
aF0.06915249999999999
aF0.06939999999999999
aF0.0696475
aF0.069895
aF0.0701425
aF0.07039
aF0.07063749999999999
aF0.070885
aF0.0711325
aF0.07138
aF0.0716275
aF0.071875
aF0.07212249999999999
aF0.07237
aF0.0726175
aF0.072865
aF0.0731125
aF0.07336
aF0.07360749999999999
aF0.07385499999999999
aF0.0741025
aF0.07435
aF0.0745975
aF0.074845
aF0.07509249999999999
aF0.07534
aF0.0755875
aF0.075835
aF0.0760825
aF0.07633
aF0.07657749999999999
aF0.076825
aF0.0770725
aF0.07732
aF0.0775675
aF0.077815
aF0.07806249999999999
aF0.07831
aF0.0785575
aF0.078805
aF0.0790525
aF0.0793
aF0.07954750000000001
aF0.07979499999999999
aF0.08004249999999999
aF0.08028999999999999
aF0.08053749999999998
aF0.08078499999999998
aF0.0810325
aF0.08127999999999999
aF0.08152749999999999
aF0.08177499999999999
aF0.08202249999999998
aF0.08227
aF0.0825175
aF0.08276499999999999
aF0.08301249999999999
aF0.08325999999999999
aF0.08350749999999998
aF0.083755
aF0.0840025
aF0.08424999999999999
aF0.08449749999999999
aF0.08474499999999999
aF0.0849925
aF0.08524
aF0.0854875
aF0.08573499999999999
aF0.08598249999999999
aF0.08622999999999999
aF0.0864775
aF0.086725
aF0.0869725
aF0.08721999999999999
aF0.08746749999999999
aF0.087715
aF0.0879625
aF0.08821
aF0.0884575
aF0.08870499999999999
aF0.08895249999999999
aF0.0892
aF0.0894475
aF0.089695
aF0.0899425
aF0.09018999999999999
aF0.09043749999999999
aF0.090685
aF0.0909325
aF0.09118
aF0.0914275
aF0.09167499999999999
aF0.0919225
aF0.09217
aF0.0924175
aF0.092665
aF0.0929125
aF0.09315999999999999
aF0.0934075
aF0.093655
aF0.0939025
aF0.09415
asS'best_mean_log'
p1021
(lp1022
F-inf
aF-inf
aF-inf
aF-inf
ag5
(g9
S'\xecQ\xb8\x1e\x85k4\xc0'
p1023
tp1024
Rp1025
ag1025
ag1025
ag1025
ag1025
ag1025
ag1025
ag5
(g9
S'\x1f\x85\xebQ\xb8^4\xc0'
p1026
tp1027
Rp1028
ag5
(g9
S'\n\xd7\xa3p=J4\xc0'
p1029
tp1030
Rp1031
ag5
(g9
S'\xb8\x1e\x85\xebQ84\xc0'
p1032
tp1033
Rp1034
ag5
(g9
S'\x8f\xc2\xf5(\\\x0f4\xc0'
p1035
tp1036
Rp1037
ag5
(g9
S'\xa4p=\n\xd7\xe33\xc0'
p1038
tp1039
Rp1040
ag5
(g9
S'\xb8\x1e\x85\xebQ\xb83\xc0'
p1041
tp1042
Rp1043
ag5
(g9
S'\x14\xaeG\xe1z\x943\xc0'
p1044
tp1045
Rp1046
ag5
(g9
S'\xcd\xcc\xcc\xcc\xccL3\xc0'
p1047
tp1048
Rp1049
ag5
(g9
S'\x85\xebQ\xb8\x1e\x053\xc0'
p1050
tp1051
Rp1052
ag5
(g9
S'R\xb8\x1e\x85\xeb\xd12\xc0'
p1053
tp1054
Rp1055
ag5
(g9
S')\\\x8f\xc2\xf5\xa82\xc0'
p1056
tp1057
Rp1058
ag5
(g9
S'\x00\x00\x00\x00\x00\x802\xc0'
p1059
tp1060
Rp1061
ag5
(g9
S'q=\n\xd7\xa302\xc0'
p1062
tp1063
Rp1064
ag5
(g9
S'\xecQ\xb8\x1e\x85\xeb1\xc0'
p1065
tp1066
Rp1067
ag5
(g9
S'\\\x8f\xc2\xf5(\x9c1\xc0'
p1068
tp1069
Rp1070
ag5
(g9
S'q=\n\xd7\xa3p1\xc0'
p1071
tp1072
Rp1073
ag5
(g9
S'\x8f\xc2\xf5(\\\x0f1\xc0'
p1074
tp1075
Rp1076
ag5
(g9
S'\n\xd7\xa3p=\xca0\xc0'
p1077
tp1078
Rp1079
ag5
(g9
S'\x85\xebQ\xb8\x1e\x850\xc0'
p1080
tp1081
Rp1082
ag5
(g9
S'{\x14\xaeG\xe1:0\xc0'
p1083
tp1084
Rp1085
ag5
(g9
S'=\n\xd7\xa3p\xbd/\xc0'
p1086
tp1087
Rp1088
ag5
(g9
S'\xd7\xa3p=\nW/\xc0'
p1089
tp1090
Rp1091
ag5
(g9
S'\xcd\xcc\xcc\xcc\xcc\xcc.\xc0'
p1092
tp1093
Rp1094
ag5
(g9
S'\n\xd7\xa3p=\x8a.\xc0'
p1095
tp1096
Rp1097
ag5
(g9
S'333333.\xc0'
p1098
tp1099
Rp1100
ag5
(g9
S'\xaeG\xe1z\x14.-\xc0'
p1101
tp1102
Rp1103
ag5
(g9
S'H\xe1z\x14\xae\xc7,\xc0'
p1104
tp1105
Rp1106
ag5
(g9
S'\\\x8f\xc2\xf5(\\,\xc0'
p1107
tp1108
Rp1109
ag5
(g9
S'\xcd\xcc\xcc\xcc\xcc\xcc+\xc0'
p1110
tp1111
Rp1112
ag5
(g9
S'\x14\xaeG\xe1z\x14+\xc0'
p1113
tp1114
Rp1115
ag5
(g9
S'\x14\xaeG\xe1z\x94*\xc0'
p1116
tp1117
Rp1118
ag5
(g9
S'fffff\xe6)\xc0'
p1119
tp1120
Rp1121
ag5
(g9
S'333333)\xc0'
p1122
tp1123
Rp1124
ag5
(g9
S'\n\xd7\xa3p=\n)\xc0'
p1125
tp1126
Rp1127
ag5
(g9
S'\x9a\x99\x99\x99\x99\x99(\xc0'
p1128
tp1129
Rp1130
ag5
(g9
S'\xaeG\xe1z\x14.(\xc0'
p1131
tp1132
Rp1133
ag5
(g9
S"\xcd\xcc\xcc\xcc\xccL'\xc0"
p1134
tp1135
Rp1136
ag5
(g9
S'q=\n\xd7\xa3p&\xc0'
p1137
tp1138
Rp1139
ag5
(g9
S'q=\n\xd7\xa3\xf0%\xc0'
p1140
tp1141
Rp1142
ag5
(g9
S'\xd7\xa3p=\nW%\xc0'
p1143
tp1144
Rp1145
ag5
(g9
S'\x85\xebQ\xb8\x1e\x05%\xc0'
p1146
tp1147
Rp1148
ag5
(g9
S'R\xb8\x1e\x85\xebQ$\xc0'
p1149
tp1150
Rp1151
ag5
(g9
S'\xecQ\xb8\x1e\x85\xeb#\xc0'
p1152
tp1153
Rp1154
ag5
(g9
S'\x85\xebQ\xb8\x1e\x85#\xc0'
p1155
tp1156
Rp1157
ag5
(g9
S'\x9a\x99\x99\x99\x99\x19#\xc0'
p1158
tp1159
Rp1160
ag5
(g9
S')\\\x8f\xc2\xf5\xa8"\xc0'
p1161
tp1162
Rp1163
ag5
(g9
S'\n\xd7\xa3p=\x8a"\xc0'
p1164
tp1165
Rp1166
ag5
(g9
S'\x00\x00\x00\x00\x00\x80!\xc0'
p1167
tp1168
Rp1169
ag5
(g9
S'H\xe1z\x14\xae\xc7 \xc0'
p1170
tp1171
Rp1172
ag5
(g9
S'{\x14\xaeG\xe1z \xc0'
p1173
tp1174
Rp1175
ag5
(g9
S'\xa4p=\n\xd7\xa3\x1e\xc0'
p1176
tp1177
Rp1178
ag5
(g9
S'\xa4p=\n\xd7\xa3\x1c\xc0'
p1179
tp1180
Rp1181
ag5
(g9
S'\xa4p=\n\xd7\xa3\x1b\xc0'
p1182
tp1183
Rp1184
ag5
(g9
S'\xcd\xcc\xcc\xcc\xcc\xcc\x19\xc0'
p1185
tp1186
Rp1187
ag5
(g9
S'\xaeG\xe1z\x14\xae\x17\xc0'
p1188
tp1189
Rp1190
ag5
(g9
S')\\\x8f\xc2\xf5(\x16\xc0'
p1191
tp1192
Rp1193
ag5
(g9
S'R\xb8\x1e\x85\xebQ\x15\xc0'
p1194
tp1195
Rp1196
ag5
(g9
S'\xf6(\\\x8f\xc2\xf5\x12\xc0'
p1197
tp1198
Rp1199
ag5
(g9
S')\\\x8f\xc2\xf5(\x0c\xc0'
p1200
tp1201
Rp1202
ag5
(g9
S'\x8f\xc2\xf5(\\\x8f\x08\xc0'
p1203
tp1204
Rp1205
ag5
(g9
S')\\\x8f\xc2\xf5(\x06\xc0'
p1206
tp1207
Rp1208
ag5
(g9
S'q=\n\xd7\xa3p\x03\xc0'
p1209
tp1210
Rp1211
ag5
(g9
S'\xb8\x1e\x85\xebQ\xb8\xfe\xbf'
p1212
tp1213
Rp1214
ag5
(g9
S'\xecQ\xb8\x1e\x85\xeb\xf1\xbf'
p1215
tp1216
Rp1217
ag5
(g9
S'\xb8\x1e\x85\xebQ\xb8\x9e\xbf'
p1218
tp1219
Rp1220
ag5
(g9
S'\x85\xebQ\xb8\x1e\x85\xdb?'
p1221
tp1222
Rp1223
ag5
(g9
S'\xcd\xcc\xcc\xcc\xcc\xcc\xf8?'
p1224
tp1225
Rp1226
ag5
(g9
S'\x00\x00\x00\x00\x00\x00\x04@'
p1227
tp1228
Rp1229
ag5
(g9
S'\xf6(\\\x8f\xc2\xf5\n@'
p1230
tp1231
Rp1232
ag5
(g9
S'\\\x8f\xc2\xf5(\\\x11@'
p1233
tp1234
Rp1235
ag5
(g9
S'\\\x8f\xc2\xf5(\\\x14@'
p1236
tp1237
Rp1238
ag5
(g9
S'\x85\xebQ\xb8\x1e\x85\x16@'
p1239
tp1240
Rp1241
ag5
(g9
S'H\xe1z\x14\xaeG\x1a@'
p1242
tp1243
Rp1244
ag5
(g9
S'\xa4p=\n\xd7\xa3\x1d@'
p1245
tp1246
Rp1247
ag5
(g9
S'\x85\xebQ\xb8\x1e\x85!@'
p1248
tp1249
Rp1250
ag5
(g9
S'\x14\xaeG\xe1z\x14#@'
p1251
tp1252
Rp1253
ag5
(g9
S'H\xe1z\x14\xae\xc7$@'
p1254
tp1255
Rp1256
ag5
(g9
S')\\\x8f\xc2\xf5(&@'
p1257
tp1258
Rp1259
ag5
(g9
S"\xc3\xf5(\\\x8f\xc2'@"
p1260
tp1261
Rp1262
ag5
(g9
S'\x1f\x85\xebQ\xb8\x9e)@'
p1263
tp1264
Rp1265
ag5
(g9
S'\x1f\x85\xebQ\xb8\x1e+@'
p1266
tp1267
Rp1268
ag5
(g9
S'{\x14\xaeG\xe1z,@'
p1269
tp1270
Rp1271
ag5
(g9
S'q=\n\xd7\xa3\xf0,@'
p1272
tp1273
Rp1274
ag5
(g9
S'33333\xb3.@'
p1275
tp1276
Rp1277
ag5
(g9
S'\xd7\xa3p=\n\xd7/@'
p1278
tp1279
Rp1280
ag5
(g9
S'fffff&0@'
p1281
tp1282
Rp1283
ag5
(g9
S'\x00\x00\x00\x00\x00@0@'
p1284
tp1285
Rp1286
ag5
(g9
S'\\\x8f\xc2\xf5(\\0@'
p1287
tp1288
Rp1289
ag5
(g9
S'fffff\xa60@'
p1290
tp1291
Rp1292
ag5
(g9
S')\\\x8f\xc2\xf5\xa80@'
p1293
tp1294
Rp1295
ag5
(g9
S'\x8f\xc2\xf5(\\\xcf0@'
p1296
tp1297
Rp1298
ag5
(g9
S'\xa4p=\n\xd7\xe30@'
p1299
tp1300
Rp1301
ag5
(g9
S'H\xe1z\x14\xaeG1@'
p1302
tp1303
Rp1304
ag5
(g9
S'H\xe1z\x14\xae\x871@'
p1305
tp1306
Rp1307
ag5
(g9
S'\xa4p=\n\xd7\xa31@'
p1308
tp1309
Rp1310
ag1310
ag1310
ag1310
ag1310
ag1310
ag1310
ag1310
ag1310
ag1310
ag1310
ag1310
ag1310
ag1310
ag1310
ag1310
ag1310
ag1310
ag1310
ag1310
ag1310
ag1310
ag1310
ag1310
ag1310
ag1310
ag1310
ag1310
ag1310
ag5
(g9
S'\xaeG\xe1z\x14\xae1@'
p1311
tp1312
Rp1313
ag5
(g9
S'{\x14\xaeG\xe1\xba1@'
p1314
tp1315
Rp1316
ag5
(g9
S'\xcd\xcc\xcc\xcc\xcc\xcc1@'
p1317
tp1318
Rp1319
ag1319
ag5
(g9
S'\x1f\x85\xebQ\xb8\xde1@'
p1320
tp1321
Rp1322
ag5
(g9
S'\xe1z\x14\xaeG\xe11@'
p1323
tp1324
Rp1325
ag5
(g9
S'=\n\xd7\xa3p\xfd1@'
p1326
tp1327
Rp1328
ag5
(g9
S'R\xb8\x1e\x85\xeb\x112@'
p1329
tp1330
Rp1331
ag5
(g9
S'\x9a\x99\x99\x99\x99\x192@'
p1332
tp1333
Rp1334
ag5
(g9
S'\xa4p=\n\xd7#2@'
p1335
tp1336
Rp1337
ag1337
ag1337
ag1337
ag1337
ag1337
ag1337
ag1337
ag5
(g9
S'fffff&2@'
p1338
tp1339
Rp1340
ag1340
ag1340
ag1340
ag1340
ag1340
ag1340
ag1340
ag1340
ag1340
ag1340
ag1340
ag1340
ag1340
ag1340
ag1340
ag1340
ag1340
ag1340
ag1340
ag1340
ag1340
ag1340
ag1340
ag1340
ag1340
ag5
(g9
S'H\xe1z\x14\xaeG2@'
p1341
tp1342
Rp1343
ag5
(g9
S'\x14\xaeG\xe1zT2@'
p1344
tp1345
Rp1346
ag5
(g9
S'q=\n\xd7\xa3p2@'
p1347
tp1348
Rp1349
ag1349
ag1349
ag1349
ag1349
ag1349
ag1349
ag1349
ag1349
ag1349
ag1349
ag1349
ag1349
ag1349
ag1349
ag1349
ag1349
ag1349
ag1349
ag1349
ag1349
ag1349
ag1349
ag1349
ag1349
ag1349
ag1349
ag1349
ag1349
ag1349
ag1349
ag1349
ag1349
ag1349
ag1349
ag1349
ag1349
ag1349
ag1349
ag1349
ag1349
ag1349
ag1349
ag1349
ag1349
ag1349
ag1349
ag1349
ag1349
ag1349
ag1349
ag1349
ag1349
ag1349
ag1349
ag1349
ag1349
ag1349
ag1349
ag1349
ag1349
ag1349
ag1349
ag1349
ag1349
ag1349
ag1349
ag1349
ag1349
ag1349
ag1349
ag1349
ag1349
ag1349
ag1349
ag1349
ag1349
ag1349
ag1349
ag1349
ag1349
ag1349
ag1349
ag1349
ag1349
ag1349
ag1349
ag1349
ag1349
ag1349
ag1349
ag1349
ag1349
ag1349
ag1349
ag1349
ag1349
ag1349
ag1349
ag1349
ag1349
ag1349
ag1349
ag1349
ag1349
ag1349
ag1349
ag1349
ag1349
ag1349
ag1349
ag1349
ag1349
ag1349
ag1349
ag1349
ag1349
ag1349
ag1349
ag1349
ag1349
ag1349
ag1349
ag1349
ag1349
ag1349
ag1349
ag1349
ag1349
ag1349
ag1349
ag1349
ag1349
ag1349
ag1349
ag1349
ag1349
ag1349
ag1349
ag1349
ag1349
ag1349
ag1349
ag1349
ag1349
ag1349
ag1349
ag1349
ag1349
ag1349
ag1349
ag1349
ag1349
ag1349
ag1349
ag1349
asS'episodes_log'
p1350
(lp1351
(lp1352
F-21.0
aF-20.0
aF-19.0
aF-21.0
aF-20.0
aF-19.0
aF-21.0
aF-21.0
aF-21.0
aF-20.0
aF-21.0
aF-20.0
aF-19.0
aF-21.0
aF-20.0
aF-19.0
aF-19.0
aF-21.0
aF-20.0
aF-19.0
aF-20.0
aF-21.0
aF-21.0
aF-19.0
aF-19.0
aF-19.0
aF-20.0
aF-19.0
aF-21.0
aF-21.0
aF-20.0
aF-21.0
aF-21.0
aF-20.0
aF-21.0
aF-21.0
aF-21.0
aF-21.0
aF-20.0
aF-21.0
aF-21.0
aF-19.0
aF-21.0
aF-20.0
aF-20.0
aF-20.0
aF-21.0
aF-20.0
aF-20.0
aF-19.0
aF-21.0
aF-18.0
aF-21.0
aF-21.0
aF-21.0
aF-21.0
aF-20.0
aF-21.0
aF-21.0
aF-21.0
aF-20.0
aF-21.0
aF-21.0
aF-21.0
aF-21.0
aF-21.0
aF-21.0
aF-19.0
aF-21.0
aF-21.0
aF-20.0
aF-21.0
aF-18.0
aF-21.0
aF-21.0
aF-21.0
aF-21.0
aF-21.0
aF-21.0
aF-21.0
aF-21.0
aF-21.0
aF-21.0
aF-21.0
aF-21.0
aF-21.0
aF-21.0
aF-21.0
aF-21.0
aF-21.0
aF-21.0
aF-21.0
aF-21.0
aF-19.0
aF-20.0
aF-20.0
aF-21.0
aF-19.0
aF-21.0
aF-21.0
aF-20.0
aF-21.0
aF-20.0
aF-21.0
aF-21.0
aF-21.0
aF-19.0
aF-21.0
aF-21.0
aF-21.0
aF-21.0
aF-20.0
aF-20.0
aF-21.0
aF-21.0
aF-19.0
aF-21.0
aF-21.0
aF-20.0
aF-19.0
aF-21.0
aF-21.0
aF-21.0
aF-21.0
aF-20.0
aF-19.0
aF-19.0
aF-20.0
aF-20.0
aF-19.0
aF-21.0
aF-21.0
aF-20.0
aF-20.0
aF-21.0
aF-21.0
aF-21.0
aF-20.0
aF-20.0
aF-19.0
aF-21.0
aF-19.0
aF-20.0
aF-19.0
aF-21.0
aF-21.0
aF-21.0
aF-21.0
aF-19.0
aF-20.0
aF-20.0
aF-20.0
aF-21.0
aF-21.0
aF-21.0
aF-20.0
aF-21.0
aF-21.0
aF-18.0
aF-21.0
aF-21.0
aF-20.0
aF-21.0
aF-21.0
aF-21.0
aF-21.0
aF-19.0
aF-19.0
aF-21.0
aF-19.0
aF-21.0
aF-20.0
aF-18.0
aF-20.0
aF-21.0
aF-20.0
aF-20.0
aF-21.0
aF-19.0
aF-20.0
aF-21.0
aF-21.0
aF-21.0
aF-20.0
aF-21.0
aF-18.0
aF-20.0
aF-20.0
aF-21.0
aF-20.0
aF-21.0
aF-20.0
aF-18.0
aF-19.0
aF-19.0
aF-19.0
aF-20.0
aF-20.0
aF-21.0
aF-19.0
aF-20.0
aF-20.0
aF-19.0
aF-20.0
aF-17.0
aF-19.0
aF-18.0
aF-18.0
aF-18.0
aF-19.0
aF-16.0
aF-16.0
aF-19.0
aF-20.0
aF-17.0
aF-20.0
aF-21.0
aF-19.0
aF-17.0
aF-18.0
aF-18.0
aF-18.0
aF-18.0
aF-18.0
aF-17.0
aF-17.0
aF-17.0
aF-18.0
aF-17.0
aF-17.0
aF-10.0
aF-16.0
aF-16.0
aF-17.0
aF-16.0
aF-14.0
aF-19.0
aF-13.0
aF-13.0
aF-16.0
aF-19.0
aF-18.0
aF-17.0
aF-14.0
aF-15.0
aF-20.0
aF-17.0
aF-17.0
aF-18.0
aF-18.0
aF-15.0
aF-16.0
aF-18.0
aF-18.0
aF-15.0
aF-19.0
aF-18.0
aF-8.0
aF-13.0
aF-17.0
aF-12.0
aF-20.0
aF-7.0
aF-18.0
aF-16.0
aF-16.0
aF-13.0
aF-15.0
aF-9.0
aF-10.0
aF-13.0
aF-16.0
aF-13.0
aF-17.0
aF1.0
aF-7.0
aF-15.0
aF-13.0
aF-13.0
aF-12.0
aF-15.0
aF-16.0
aF-18.0
aF-7.0
aF-6.0
aF-4.0
aF-7.0
aF-16.0
aF-16.0
aF-16.0
aF-11.0
aF-13.0
aF-13.0
aF-11.0
aF-3.0
aF-12.0
aF-20.0
aF-16.0
aF-21.0
aF-15.0
aF-13.0
aF-18.0
aF-14.0
aF-15.0
aF-14.0
aF-15.0
aF-8.0
aF3.0
aF2.0
aF-6.0
aF-14.0
aF-19.0
aF-11.0
aF-10.0
aF-18.0
aF-17.0
aF-14.0
aF-17.0
aF-20.0
aF-6.0
aF1.0
aF-2.0
aF-2.0
aF-14.0
aF-15.0
aF-6.0
aF-5.0
aF-7.0
aF-13.0
aF2.0
aF-9.0
aF-16.0
aF-2.0
aF3.0
aF-8.0
aF-17.0
aF-17.0
aF-7.0
aF-15.0
aF-1.0
aF-15.0
aF-6.0
aF-11.0
aF-11.0
aF5.0
aF-8.0
aF-12.0
aF-10.0
aF3.0
aF-10.0
aF-1.0
aF-4.0
aF-11.0
aF-12.0
aF-4.0
aF-9.0
aF-9.0
aF1.0
aF-6.0
aF-2.0
aF-7.0
aF-5.0
aF-3.0
aF-12.0
aF-6.0
aF-9.0
aF-11.0
aF-9.0
aF-4.0
aF-5.0
aF-1.0
aF-12.0
aF-6.0
aF-2.0
aF-1.0
aF-14.0
aF-6.0
aF-7.0
aF8.0
aF2.0
aF2.0
aF8.0
aF-15.0
aF-11.0
aF7.0
aF6.0
aF-2.0
aF-3.0
aF1.0
aF9.0
aF-8.0
aF8.0
aF9.0
aF-4.0
aF-14.0
aF9.0
aF-5.0
aF8.0
aF-9.0
aF-5.0
aF-4.0
aF8.0
aF4.0
aF2.0
aF3.0
aF-11.0
aF13.0
aF-3.0
aF1.0
aF7.0
aF9.0
aF11.0
aF17.0
aF21.0
aF12.0
aF16.0
aF2.0
aF3.0
aF-11.0
aF6.0
aF-6.0
aF13.0
aF8.0
aF-4.0
aF9.0
aF-9.0
aF17.0
aF15.0
aF-3.0
aF18.0
aF10.0
aF13.0
aF14.0
aF18.0
aF18.0
aF20.0
aF14.0
aF12.0
aF7.0
aF4.0
aF11.0
aF10.0
aF18.0
aF20.0
aF15.0
aF19.0
aF15.0
aF20.0
aF14.0
aF13.0
aF20.0
aF7.0
aF21.0
aF14.0
aF14.0
aF14.0
aF21.0
aF15.0
aF18.0
aF17.0
aF11.0
aF-4.0
aF15.0
aF13.0
aF4.0
aF10.0
aF18.0
aF16.0
aF17.0
aF12.0
aF17.0
aF16.0
aF15.0
aF21.0
aF19.0
aF21.0
aF18.0
aF15.0
aF19.0
aF18.0
aF21.0
aF16.0
aF20.0
aF8.0
aF20.0
aF16.0
aF19.0
aF19.0
aF15.0
aF17.0
aF21.0
aF15.0
aF20.0
aF17.0
aF15.0
aF16.0
aF18.0
aF16.0
aF21.0
aF20.0
aF21.0
aF13.0
aF16.0
aF15.0
aF18.0
aF20.0
aF17.0
aF20.0
aF18.0
aF15.0
aF21.0
aF19.0
aF17.0
aF17.0
aF21.0
aF18.0
aF18.0
aF19.0
aF20.0
aF18.0
aF15.0
aF21.0
aF15.0
aF16.0
aF19.0
aF11.0
aF17.0
aF19.0
aF15.0
aF19.0
aF15.0
aF16.0
aF16.0
aF8.0
aF18.0
aF16.0
aF20.0
aF18.0
aF20.0
aF19.0
aF19.0
aF16.0
aF16.0
aF21.0
aF17.0
aF12.0
aF20.0
aF16.0
aF21.0
aF19.0
aF19.0
aF16.0
aF20.0
aF18.0
aF18.0
aF15.0
aF20.0
aF19.0
aF19.0
aF20.0
aF17.0
aF18.0
aF19.0
aF16.0
aF20.0
aF14.0
aF20.0
aF19.0
aF21.0
aF16.0
aF17.0
aF13.0
aF13.0
aF15.0
aF16.0
aF19.0
aF16.0
aF17.0
aF21.0
aF13.0
aF18.0
aF14.0
aF19.0
aF18.0
aF18.0
aF20.0
aF18.0
aF18.0
aF19.0
aF18.0
aF18.0
aF13.0
aF12.0
aF19.0
aF19.0
aF19.0
aF17.0
aF15.0
aF16.0
aF18.0
aF17.0
aF15.0
aF17.0
aF12.0
aF15.0
aF19.0
aF13.0
aF20.0
aF19.0
aF18.0
aF15.0
aF20.0
aF12.0
aF18.0
aF18.0
aF20.0
aF10.0
aF20.0
aF16.0
aF18.0
aF17.0
aF17.0
aF20.0
aF16.0
aF21.0
aF19.0
aF19.0
aF19.0
aF20.0
aF11.0
aF12.0
aF17.0
aF19.0
aF18.0
aF17.0
aF18.0
aF19.0
aF20.0
aF10.0
aF19.0
aF16.0
aF20.0
aF17.0
aF17.0
aF20.0
aF19.0
aF19.0
aF20.0
aF20.0
aF19.0
aF17.0
aF13.0
aF20.0
aF20.0
aF18.0
aF16.0
aF18.0
aF17.0
aF20.0
aF19.0
aF18.0
aF17.0
aF17.0
aF14.0
aF18.0
aF19.0
aF15.0
aF19.0
aF20.0
aF16.0
aF17.0
aF19.0
aF19.0
aF18.0
aF19.0
aF19.0
aF16.0
aF17.0
aF9.0
aF18.0
aF15.0
aF19.0
aF14.0
aF19.0
aF20.0
aF18.0
aF20.0
aF18.0
aF21.0
aF18.0
aF19.0
aF21.0
aF19.0
aF17.0
aF18.0
aF17.0
aF19.0
aF17.0
aF19.0
aF21.0
aF17.0
aF16.0
aF18.0
aF20.0
aF19.0
aF16.0
aF17.0
aF16.0
aF20.0
aF20.0
aF16.0
aF18.0
aF18.0
aF21.0
aF18.0
aF16.0
aF14.0
aF16.0
aF20.0
aF19.0
aF21.0
aF19.0
aF19.0
aF18.0
aF18.0
aF18.0
aF21.0
aF17.0
aF17.0
aF19.0
aF20.0
aF19.0
aF19.0
aF21.0
aF19.0
aF21.0
aF19.0
aF13.0
aF20.0
aF16.0
aF17.0
aF18.0
aF21.0
aF21.0
aF19.0
aF20.0
aF15.0
aF19.0
aF18.0
aF13.0
aF19.0
aF18.0
aF16.0
aF21.0
aF18.0
aF19.0
aF13.0
aF21.0
aF19.0
aF18.0
aF18.0
aF19.0
aF15.0
aF18.0
aF18.0
aF19.0
aF18.0
aF15.0
aF18.0
aF20.0
aF17.0
aF18.0
aF19.0
aF19.0
aF13.0
aF19.0
aF17.0
aF17.0
aF18.0
aF18.0
aF14.0
aF16.0
aF19.0
aF18.0
aF15.0
aF16.0
aF20.0
aF14.0
aF19.0
aF15.0
aF15.0
aF16.0
aF11.0
aF20.0
aF15.0
aF19.0
aF12.0
aF12.0
aF18.0
aF12.0
aF18.0
aF20.0
aF20.0
aF17.0
aF19.0
aF17.0
aF16.0
aF20.0
aF15.0
aF18.0
aF16.0
aF17.0
aF18.0
aF20.0
aF18.0
aF20.0
aF17.0
aF15.0
aF18.0
aF18.0
aF15.0
aF16.0
aF19.0
aF19.0
aF20.0
aF20.0
aF19.0
aF19.0
aF20.0
aF17.0
aF19.0
aF17.0
aF21.0
aF20.0
aF20.0
aF18.0
aF19.0
aF19.0
aF17.0
aF19.0
aF17.0
aF17.0
aF17.0
aF15.0
aF19.0
aF20.0
aF18.0
aF18.0
aF18.0
aF16.0
aF14.0
aF21.0
aF16.0
aF17.0
aF19.0
aF18.0
aF20.0
aF18.0
aF15.0
aF18.0
aF20.0
aF20.0
aF21.0
aF19.0
aF19.0
aF19.0
aF17.0
aF18.0
aF19.0
aF19.0
aF19.0
aF20.0
aF18.0
aF19.0
aF15.0
aF17.0
aF19.0
aF19.0
aF21.0
aF18.0
aF18.0
aF16.0
aF18.0
aF18.0
aF16.0
aF20.0
aF18.0
aF20.0
aF15.0
aF21.0
aF18.0
aF19.0
aF18.0
aF21.0
aF19.0
aF16.0
aF19.0
aF15.0
aF15.0
aF16.0
aF20.0
aF17.0
aF16.0
aF20.0
aF20.0
aF18.0
aF19.0
aF19.0
aF20.0
aF21.0
aF21.0
aF17.0
aF21.0
aF19.0
aF21.0
aF19.0
aF19.0
aF20.0
aF18.0
aF20.0
aF18.0
aF16.0
aF17.0
aF14.0
aF20.0
aF18.0
aF20.0
aF19.0
aF16.0
aF17.0
aF20.0
aF19.0
aF16.0
aF18.0
aF17.0
aF16.0
aF17.0
aF19.0
aF17.0
aF15.0
aF20.0
aF21.0
aF18.0
aF18.0
aF19.0
aF16.0
aF14.0
aF16.0
aF18.0
aF20.0
aF16.0
aF18.0
aF18.0
aF17.0
aF17.0
aF19.0
aF18.0
aF21.0
aF17.0
aF17.0
aF19.0
aF20.0
aF18.0
aF17.0
aF12.0
aF18.0
aF19.0
aF16.0
aF19.0
aF17.0
aF21.0
aF20.0
aF18.0
aF19.0
aF19.0
aF19.0
aF20.0
aF19.0
aF19.0
aF21.0
aF19.0
aF19.0
aF21.0
aF12.0
aF19.0
aF14.0
aF18.0
aF19.0
aF18.0
aF17.0
aF21.0
aF16.0
aF21.0
aF16.0
aF9.0
aF17.0
aF17.0
aF14.0
aF19.0
aF18.0
aF18.0
aF18.0
aF19.0
aF17.0
aF18.0
aF17.0
aF20.0
aF18.0
aF18.0
aF15.0
aF15.0
aF15.0
aF15.0
aF17.0
aF21.0
aF19.0
aF21.0
aF17.0
aF18.0
aF20.0
aF19.0
aF15.0
aF20.0
aF18.0
aF14.0
aF19.0
aF19.0
aF17.0
aF19.0
aF19.0
aF15.0
aF13.0
aF21.0
aF19.0
aF20.0
aF14.0
aF18.0
aF19.0
aF17.0
aF20.0
aF14.0
aF15.0
aF17.0
aF20.0
aF18.0
aF17.0
aF20.0
aF21.0
aF16.0
aF19.0
aF15.0
aF15.0
aF20.0
aF20.0
aF20.0
aF17.0
aF21.0
aF18.0
aF17.0
aF19.0
aF16.0
aF19.0
aF19.0
aF18.0
aF20.0
aF16.0
aF19.0
aF18.0
aF19.0
aF15.0
aF21.0
aF17.0
aF18.0
aF19.0
aF16.0
aF19.0
aF20.0
aF15.0
aF18.0
aF15.0
aF21.0
aF20.0
aF20.0
aF18.0
aF19.0
aF19.0
aF18.0
aF19.0
aF14.0
aF19.0
aF18.0
aF17.0
aF16.0
aF19.0
aF17.0
aF15.0
aF16.0
aF19.0
aF17.0
aF17.0
aF19.0
aF18.0
aF21.0
aF19.0
aF18.0
aF20.0
aF21.0
aF18.0
aF17.0
aF17.0
aF19.0
aF17.0
aF20.0
aF15.0
aF20.0
aF19.0
aF18.0
aF14.0
aF15.0
aF14.0
aF18.0
aF12.0
aF19.0
aF15.0
aF15.0
aF18.0
aF16.0
aF14.0
aF19.0
aF20.0
aF15.0
aF20.0
aF20.0
aF17.0
aF17.0
aF19.0
aF18.0
aF19.0
aF17.0
aF17.0
aF17.0
aF15.0
aF16.0
aF20.0
aF17.0
aF13.0
aF14.0
aF16.0
aF16.0
aF17.0
aF20.0
aF17.0
aF19.0
aF16.0
aF17.0
aF14.0
aF18.0
aF17.0
aF7.0
aF17.0
aF19.0
aF18.0
aF19.0
aF17.0
aF13.0
aF18.0
aF18.0
aF15.0
aF19.0
aF15.0
aF17.0
aF15.0
aF18.0
aF17.0
aF15.0
aF18.0
aF14.0
aF19.0
aF12.0
aF13.0
aF19.0
aF14.0
aF19.0
aF15.0
aF15.0
aF19.0
aF15.0
aF19.0
aF20.0
aF18.0
aF18.0
aF15.0
aF19.0
aF14.0
aF14.0
aF18.0
aF18.0
aF15.0
aF17.0
aF19.0
aF15.0
aF15.0
aF21.0
aF17.0
aF17.0
aF18.0
aF20.0
aF13.0
aF17.0
aF17.0
aF10.0
aF20.0
aF19.0
aF17.0
aF18.0
aF14.0
aF20.0
aF17.0
aF17.0
aF20.0
aF20.0
aF16.0
aF19.0
aF19.0
aF18.0
aF14.0
aF19.0
aF18.0
aF20.0
aF18.0
aF18.0
aF21.0
aF21.0
aF18.0
aF18.0
aF19.0
aF18.0
aF15.0
aF13.0
aF15.0
aF16.0
aF16.0
aF20.0
aF20.0
aF20.0
aF19.0
aF17.0
aF14.0
aF19.0
aF12.0
aF20.0
aF18.0
aF17.0
aF15.0
aF16.0
aF15.0
aF15.0
aF19.0
aF19.0
aF18.0
aF18.0
aF21.0
aF13.0
aF17.0
aF20.0
aF18.0
aF16.0
aF17.0
aF19.0
aF16.0
aF18.0
aF15.0
aF19.0
aF20.0
aF16.0
aF11.0
aF17.0
aF13.0
aF16.0
aF17.0
aF18.0
aF20.0
aF20.0
aF14.0
aF19.0
aF16.0
aF14.0
aF19.0
aF20.0
aF17.0
aF19.0
aF15.0
aF17.0
aF16.0
aF20.0
aF18.0
aF18.0
aF19.0
aF17.0
aF16.0
aF18.0
aF21.0
aF18.0
aF18.0
aF18.0
aF17.0
aF15.0
aF21.0
aF17.0
aF15.0
aF18.0
aF14.0
aF20.0
aF17.0
aF18.0
aF20.0
aF15.0
aF17.0
aF15.0
aF17.0
aF15.0
aF18.0
aF19.0
aF17.0
aF19.0
aF18.0
aF18.0
aF19.0
aF13.0
aF20.0
aF18.0
aF15.0
aF19.0
aF19.0
aF18.0
aF18.0
aF18.0
aF19.0
aF17.0
aF16.0
aF19.0
aF21.0
aF19.0
aF18.0
aF20.0
aF20.0
aF21.0
aF17.0
aF20.0
aF19.0
aF14.0
aF16.0
aF20.0
aF16.0
aF13.0
aF15.0
aF17.0
aF16.0
aF15.0
aF18.0
aF12.0
aF15.0
aF17.0
aF20.0
aF19.0
aF15.0
aF17.0
aF21.0
aF20.0
aF18.0
aF15.0
aF17.0
aF19.0
aF19.0
aF13.0
aF20.0
aF19.0
aF18.0
aF17.0
aF17.0
aF18.0
aF20.0
aF19.0
aF15.0
aF18.0
aF16.0
aF21.0
aF15.0
aF21.0
aF18.0
aF16.0
aF18.0
aF20.0
aF20.0
aF17.0
aF15.0
aF21.0
aF21.0
aF17.0
aF16.0
aF17.0
aF16.0
aF20.0
aF18.0
aF18.0
aF19.0
aF17.0
aF17.0
aF15.0
aF15.0
aF19.0
aF19.0
aF20.0
aF20.0
aF21.0
aF18.0
aF13.0
aF16.0
aF19.0
aF16.0
aF21.0
aF17.0
aF17.0
aF18.0
aF18.0
aF17.0
aF19.0
aF19.0
aF17.0
aF14.0
aF13.0
aF12.0
aF16.0
aF19.0
aF17.0
aF20.0
aF20.0
aF15.0
aF15.0
aF18.0
aF17.0
aF18.0
aF21.0
aF20.0
aF16.0
aF14.0
aF19.0
aF20.0
aF19.0
aF17.0
aF17.0
aF18.0
aF17.0
aF19.0
aF17.0
aF15.0
aF19.0
aF12.0
aF20.0
aF14.0
aF13.0
aF19.0
aF19.0
aF15.0
aF19.0
aF20.0
aF17.0
aF9.0
aF17.0
aF17.0
aF14.0
aF17.0
aF20.0
aF13.0
aF18.0
aF16.0
aF18.0
aF20.0
aF16.0
aF21.0
aF18.0
aF18.0
aF19.0
aF16.0
aF16.0
aF16.0
aF21.0
aF14.0
aF15.0
aF17.0
aF14.0
aF17.0
aF21.0
aF19.0
aF20.0
aF16.0
aF16.0
aF17.0
aF14.0
aF17.0
aF16.0
aF16.0
aF16.0
aF15.0
aF15.0
aF19.0
aF21.0
aF17.0
aF17.0
aF17.0
aF19.0
aF16.0
aF16.0
aF15.0
aF18.0
aF18.0
aF18.0
aF19.0
aF16.0
aF16.0
aF19.0
aF20.0
aF17.0
aF20.0
aF17.0
aF17.0
aF18.0
aF20.0
aF17.0
aF20.0
aF15.0
aF15.0
aF15.0
aF17.0
aF11.0
aF16.0
aF18.0
aF19.0
aF21.0
aF16.0
aF18.0
aF18.0
aF18.0
aF18.0
aF19.0
aF15.0
aF17.0
aF16.0
aF18.0
aF18.0
aF14.0
aF18.0
aF19.0
aF17.0
aF18.0
aF20.0
aF20.0
aF14.0
aF19.0
aF20.0
aF13.0
aF19.0
aF19.0
aF18.0
aF20.0
aF17.0
aF20.0
aF19.0
aF16.0
aF17.0
aF19.0
aF16.0
aF17.0
aF16.0
aF18.0
aF19.0
aF18.0
aF18.0
aF19.0
aF14.0
aF18.0
aF19.0
aF17.0
aF19.0
aF16.0
aF19.0
aF19.0
aF19.0
aF18.0
aF17.0
aF18.0
aF16.0
aF17.0
aF19.0
aF18.0
aF16.0
aF17.0
aF17.0
aF19.0
aF19.0
aF19.0
aF17.0
aF18.0
aF17.0
aF18.0
aF17.0
aF20.0
aF17.0
aF17.0
aF12.0
aF16.0
aF16.0
aF15.0
aF20.0
aF14.0
aF17.0
aF17.0
aF14.0
aF17.0
aF16.0
aF18.0
aF15.0
aF17.0
aF20.0
aF18.0
aF16.0
aF20.0
aF18.0
aF19.0
aF16.0
aF19.0
aF15.0
aF17.0
aF18.0
aF16.0
aF19.0
aF15.0
aF20.0
aF13.0
aF16.0
aF19.0
aF17.0
aF17.0
aF17.0
aF18.0
aF18.0
aF18.0
aF16.0
aF20.0
aF15.0
aF17.0
aF18.0
aF16.0
aF20.0
aF17.0
aF12.0
aag1352
ag1352
ag1352
ag1352
ag1352
ag1352
ag1352
ag1352
ag1352
ag1352
ag1352
ag1352
ag1352
ag1352
ag1352
ag1352
ag1352
ag1352
ag1352
ag1352
ag1352
ag1352
ag1352
ag1352
ag1352
ag1352
ag1352
ag1352
ag1352
ag1352
ag1352
ag1352
ag1352
ag1352
ag1352
ag1352
ag1352
ag1352
ag1352
ag1352
ag1352
ag1352
ag1352
ag1352
ag1352
ag1352
ag1352
ag1352
ag1352
ag1352
ag1352
ag1352
ag1352
ag1352
ag1352
ag1352
ag1352
ag1352
ag1352
ag1352
ag1352
ag1352
ag1352
ag1352
ag1352
ag1352
ag1352
ag1352
ag1352
ag1352
ag1352
ag1352
ag1352
ag1352
ag1352
ag1352
ag1352
ag1352
ag1352
ag1352
ag1352
ag1352
ag1352
ag1352
ag1352
ag1352
ag1352
ag1352
ag1352
ag1352
ag1352
ag1352
ag1352
ag1352
ag1352
ag1352
ag1352
ag1352
ag1352
ag1352
ag1352
ag1352
ag1352
ag1352
ag1352
ag1352
ag1352
ag1352
ag1352
ag1352
ag1352
ag1352
ag1352
ag1352
ag1352
ag1352
ag1352
ag1352
ag1352
ag1352
ag1352
ag1352
ag1352
ag1352
ag1352
ag1352
ag1352
ag1352
ag1352
ag1352
ag1352
ag1352
ag1352
ag1352
ag1352
ag1352
ag1352
ag1352
ag1352
ag1352
ag1352
ag1352
ag1352
ag1352
ag1352
ag1352
ag1352
ag1352
ag1352
ag1352
ag1352
ag1352
ag1352
ag1352
ag1352
ag1352
ag1352
ag1352
ag1352
ag1352
ag1352
ag1352
ag1352
ag1352
ag1352
ag1352
ag1352
ag1352
ag1352
ag1352
ag1352
ag1352
ag1352
ag1352
ag1352
ag1352
ag1352
ag1352
ag1352
ag1352
ag1352
ag1352
ag1352
ag1352
ag1352
ag1352
ag1352
ag1352
ag1352
ag1352
ag1352
ag1352
ag1352
ag1352
ag1352
ag1352
ag1352
ag1352
ag1352
ag1352
ag1352
ag1352
ag1352
ag1352
ag1352
ag1352
ag1352
ag1352
ag1352
ag1352
ag1352
ag1352
ag1352
ag1352
ag1352
ag1352
ag1352
ag1352
ag1352
ag1352
ag1352
ag1352
ag1352
ag1352
ag1352
ag1352
ag1352
ag1352
ag1352
ag1352
ag1352
ag1352
ag1352
ag1352
ag1352
ag1352
ag1352
ag1352
ag1352
ag1352
ag1352
ag1352
ag1352
ag1352
ag1352
ag1352
ag1352
ag1352
ag1352
ag1352
ag1352
ag1352
ag1352
ag1352
ag1352
ag1352
ag1352
ag1352
ag1352
ag1352
ag1352
ag1352
ag1352
ag1352
ag1352
ag1352
ag1352
ag1352
ag1352
ag1352
ag1352
ag1352
ag1352
ag1352
ag1352
ag1352
ag1352
ag1352
ag1352
ag1352
ag1352
ag1352
ag1352
ag1352
ag1352
ag1352
ag1352
ag1352
ag1352
ag1352
ag1352
ag1352
ag1352
ag1352
ag1352
ag1352
ag1352
ag1352
ag1352
ag1352
ag1352
ag1352
ag1352
ag1352
ag1352
ag1352
ag1352
ag1352
ag1352
ag1352
ag1352
ag1352
ag1352
ag1352
ag1352
ag1352
ag1352
ag1352
ag1352
ag1352
ag1352
ag1352
ag1352
ag1352
ag1352
ag1352
ag1352
ag1352
ag1352
ag1352
ag1352
ag1352
ag1352
ag1352
as.