(dp0
S't_log'
p1
(lp2
I60000
aI70000
aI80000
aI90000
aI100000
aI110000
aI120000
aI130000
aI140000
aI150000
aI160000
aI170000
aI180000
aI190000
aI200000
aI210000
aI220000
aI230000
aI240000
aI250000
aI260000
aI270000
aI280000
aI290000
aI300000
aI310000
aI320000
aI330000
aI340000
aI350000
aI360000
aI370000
aI380000
aI390000
aI400000
asS'mean_reward_log'
p3
(lp4
cnumpy.core.multiarray
scalar
p5
(cnumpy
dtype
p6
(S'f8'
p7
I0
I1
tp8
Rp9
(I3
S'<'
p10
NNNI-1
I-1
I0
tp11
bS'\xd1E\x17]tQ4\xc0'
p12
tp13
Rp14
ag5
(g9
S'\xc4Y\xf9\tqV4\xc0'
p15
tp16
Rp17
ag5
(g9
S'\x8c.\xba\xe8\xa2k4\xc0'
p18
tp19
Rp20
ag5
(g9
S'm\xb2\xc9&\x9bl4\xc0'
p21
tp22
Rp23
ag5
(g9
S'\xf6(\\\x8f\xc2u4\xc0'
p24
tp25
Rp26
ag5
(g9
S'\xc3\xf5(\\\x8f\x824\xc0'
p27
tp28
Rp29
ag5
(g9
S'\xc3\xf5(\\\x8f\x824\xc0'
p30
tp31
Rp32
ag5
(g9
S'\xb8\x1e\x85\xebQx4\xc0'
p33
tp34
Rp35
ag5
(g9
S'\x00\x00\x00\x00\x00\x804\xc0'
p36
tp37
Rp38
ag5
(g9
S'\xb8\x1e\x85\xebQx4\xc0'
p39
tp40
Rp41
ag5
(g9
S'\xaeG\xe1z\x14n4\xc0'
p42
tp43
Rp44
ag5
(g9
S'\x1f\x85\xebQ\xb8^4\xc0'
p45
tp46
Rp47
ag5
(g9
S'\n\xd7\xa3p=J4\xc0'
p48
tp49
Rp50
ag5
(g9
S'\xb8\x1e\x85\xebQ84\xc0'
p51
tp52
Rp53
ag5
(g9
S'\x8f\xc2\xf5(\\\x0f4\xc0'
p54
tp55
Rp56
ag5
(g9
S'fffff\xe63\xc0'
p57
tp58
Rp59
ag5
(g9
S'\xb8\x1e\x85\xebQ\xb83\xc0'
p60
tp61
Rp62
ag5
(g9
S'\x14\xaeG\xe1z\x943\xc0'
p63
tp64
Rp65
ag5
(g9
S'\xcd\xcc\xcc\xcc\xccL3\xc0'
p66
tp67
Rp68
ag5
(g9
S'\x85\xebQ\xb8\x1e\x053\xc0'
p69
tp70
Rp71
ag5
(g9
S'R\xb8\x1e\x85\xeb\xd12\xc0'
p72
tp73
Rp74
ag5
(g9
S')\\\x8f\xc2\xf5\xa82\xc0'
p75
tp76
Rp77
ag5
(g9
S'\x00\x00\x00\x00\x00\x802\xc0'
p78
tp79
Rp80
ag5
(g9
S'q=\n\xd7\xa302\xc0'
p81
tp82
Rp83
ag5
(g9
S'\xecQ\xb8\x1e\x85\xeb1\xc0'
p84
tp85
Rp86
ag5
(g9
S'\\\x8f\xc2\xf5(\x9c1\xc0'
p87
tp88
Rp89
ag5
(g9
S'q=\n\xd7\xa3p1\xc0'
p90
tp91
Rp92
ag5
(g9
S'\x8f\xc2\xf5(\\\x0f1\xc0'
p93
tp94
Rp95
ag5
(g9
S'\n\xd7\xa3p=\xca0\xc0'
p96
tp97
Rp98
ag5
(g9
S'\x85\xebQ\xb8\x1e\x850\xc0'
p99
tp100
Rp101
ag5
(g9
S'{\x14\xaeG\xe1:0\xc0'
p102
tp103
Rp104
ag5
(g9
S'=\n\xd7\xa3p\xbd/\xc0'
p105
tp106
Rp107
ag5
(g9
S'\xd7\xa3p=\nW/\xc0'
p108
tp109
Rp110
ag5
(g9
S'\xcd\xcc\xcc\xcc\xcc\xcc.\xc0'
p111
tp112
Rp113
ag5
(g9
S'\n\xd7\xa3p=\x8a.\xc0'
p114
tp115
Rp116
asS'learning_rate_log'
p117
(lp118
F0.0001
aF0.0001
aF0.0001
aF0.0001
aF0.0001
aF0.0001
aF0.0001
aF0.0001
aF0.0001
aF0.0001
aF0.0001
aF0.0001
aF0.0001
aF0.0001
aF0.0001
aF0.0001
aF0.0001
aF0.0001
aF0.0001
aF0.0001
aF0.0001
aF0.0001
aF0.0001
aF0.0001
aF0.0001
aF0.0001
aF0.0001
aF0.0001
aF0.0001
aF0.0001
aF0.0001
aF0.0001
aF0.0001
aF0.0001
aF0.0001
asS'exploration_log'
p119
(lp120
F0.011485
aF0.0117325
aF0.011980000000000001
aF0.0122275
aF0.012475
aF0.0127225
aF0.01297
aF0.0132175
aF0.013465000000000001
aF0.013712499999999999
aF0.01396
aF0.014207500000000001
aF0.014454999999999999
aF0.0147025
aF0.014950000000000001
aF0.0151975
aF0.015445
aF0.015692499999999998
aF0.01594
aF0.0161875
aF0.016434999999999998
aF0.0166825
aF0.01693
aF0.017177500000000002
aF0.017425
aF0.0176725
aF0.01792
aF0.018167500000000003
aF0.018415
aF0.0186625
aF0.01891
aF0.0191575
aF0.019405
aF0.0196525
aF0.0199
asS'best_mean_log'
p121
(lp122
F-inf
aF-inf
aF-inf
aF-inf
ag5
(g9
S'\xecQ\xb8\x1e\x85k4\xc0'
p123
tp124
Rp125
ag125
ag125
ag125
ag125
ag125
ag125
ag5
(g9
S'\x1f\x85\xebQ\xb8^4\xc0'
p126
tp127
Rp128
ag5
(g9
S'\n\xd7\xa3p=J4\xc0'
p129
tp130
Rp131
ag5
(g9
S'\xb8\x1e\x85\xebQ84\xc0'
p132
tp133
Rp134
ag5
(g9
S'\x8f\xc2\xf5(\\\x0f4\xc0'
p135
tp136
Rp137
ag5
(g9
S'\xa4p=\n\xd7\xe33\xc0'
p138
tp139
Rp140
ag5
(g9
S'\xb8\x1e\x85\xebQ\xb83\xc0'
p141
tp142
Rp143
ag5
(g9
S'\x14\xaeG\xe1z\x943\xc0'
p144
tp145
Rp146
ag5
(g9
S'\xcd\xcc\xcc\xcc\xccL3\xc0'
p147
tp148
Rp149
ag5
(g9
S'\x85\xebQ\xb8\x1e\x053\xc0'
p150
tp151
Rp152
ag5
(g9
S'R\xb8\x1e\x85\xeb\xd12\xc0'
p153
tp154
Rp155
ag5
(g9
S')\\\x8f\xc2\xf5\xa82\xc0'
p156
tp157
Rp158
ag5
(g9
S'\x00\x00\x00\x00\x00\x802\xc0'
p159
tp160
Rp161
ag5
(g9
S'q=\n\xd7\xa302\xc0'
p162
tp163
Rp164
ag5
(g9
S'\xecQ\xb8\x1e\x85\xeb1\xc0'
p165
tp166
Rp167
ag5
(g9
S'\\\x8f\xc2\xf5(\x9c1\xc0'
p168
tp169
Rp170
ag5
(g9
S'q=\n\xd7\xa3p1\xc0'
p171
tp172
Rp173
ag5
(g9
S'\x8f\xc2\xf5(\\\x0f1\xc0'
p174
tp175
Rp176
ag5
(g9
S'\n\xd7\xa3p=\xca0\xc0'
p177
tp178
Rp179
ag5
(g9
S'\x85\xebQ\xb8\x1e\x850\xc0'
p180
tp181
Rp182
ag5
(g9
S'{\x14\xaeG\xe1:0\xc0'
p183
tp184
Rp185
ag5
(g9
S'=\n\xd7\xa3p\xbd/\xc0'
p186
tp187
Rp188
ag5
(g9
S'\xd7\xa3p=\nW/\xc0'
p189
tp190
Rp191
ag5
(g9
S'\xcd\xcc\xcc\xcc\xcc\xcc.\xc0'
p192
tp193
Rp194
ag5
(g9
S'\n\xd7\xa3p=\x8a.\xc0'
p195
tp196
Rp197
asS'episodes_log'
p198
(lp199
(lp200
F-21.0
aF-20.0
aF-19.0
aF-21.0
aF-20.0
aF-19.0
aF-21.0
aF-21.0
aF-21.0
aF-20.0
aF-21.0
aF-20.0
aF-19.0
aF-21.0
aF-20.0
aF-19.0
aF-19.0
aF-21.0
aF-20.0
aF-19.0
aF-20.0
aF-21.0
aF-21.0
aF-19.0
aF-19.0
aF-19.0
aF-20.0
aF-19.0
aF-21.0
aF-21.0
aF-20.0
aF-21.0
aF-21.0
aF-20.0
aF-21.0
aF-21.0
aF-21.0
aF-21.0
aF-20.0
aF-21.0
aF-21.0
aF-19.0
aF-21.0
aF-20.0
aF-20.0
aF-20.0
aF-21.0
aF-20.0
aF-20.0
aF-19.0
aF-21.0
aF-18.0
aF-21.0
aF-21.0
aF-21.0
aF-21.0
aF-20.0
aF-21.0
aF-21.0
aF-21.0
aF-20.0
aF-21.0
aF-21.0
aF-21.0
aF-21.0
aF-21.0
aF-21.0
aF-19.0
aF-21.0
aF-21.0
aF-20.0
aF-21.0
aF-18.0
aF-21.0
aF-21.0
aF-21.0
aF-21.0
aF-21.0
aF-21.0
aF-21.0
aF-21.0
aF-21.0
aF-21.0
aF-21.0
aF-21.0
aF-21.0
aF-21.0
aF-21.0
aF-21.0
aF-21.0
aF-21.0
aF-21.0
aF-21.0
aF-19.0
aF-20.0
aF-20.0
aF-21.0
aF-19.0
aF-21.0
aF-21.0
aF-20.0
aF-21.0
aF-20.0
aF-21.0
aF-21.0
aF-21.0
aF-19.0
aF-21.0
aF-21.0
aF-21.0
aF-21.0
aF-20.0
aF-20.0
aF-21.0
aF-21.0
aF-19.0
aF-21.0
aF-21.0
aF-20.0
aF-19.0
aF-21.0
aF-21.0
aF-21.0
aF-21.0
aF-20.0
aF-19.0
aF-19.0
aF-20.0
aF-20.0
aF-19.0
aF-21.0
aF-21.0
aF-20.0
aF-20.0
aF-21.0
aF-21.0
aF-21.0
aF-20.0
aF-20.0
aF-19.0
aF-21.0
aF-19.0
aF-20.0
aF-19.0
aF-21.0
aF-21.0
aF-21.0
aF-21.0
aF-19.0
aF-20.0
aF-20.0
aF-20.0
aF-21.0
aF-21.0
aF-21.0
aF-20.0
aF-21.0
aF-21.0
aF-18.0
aF-21.0
aF-21.0
aF-20.0
aF-21.0
aF-21.0
aF-21.0
aF-21.0
aF-19.0
aF-19.0
aF-21.0
aF-19.0
aF-21.0
aF-20.0
aF-18.0
aF-20.0
aF-21.0
aF-20.0
aF-20.0
aF-21.0
aF-19.0
aF-20.0
aF-21.0
aF-21.0
aF-21.0
aF-20.0
aF-21.0
aF-18.0
aF-20.0
aF-20.0
aF-21.0
aF-20.0
aF-21.0
aF-20.0
aF-18.0
aF-19.0
aF-19.0
aF-19.0
aF-20.0
aF-20.0
aF-21.0
aF-19.0
aF-20.0
aF-20.0
aF-19.0
aF-20.0
aF-17.0
aF-19.0
aF-18.0
aF-18.0
aF-18.0
aF-19.0
aF-16.0
aF-16.0
aF-19.0
aF-20.0
aF-17.0
aF-20.0
aF-21.0
aF-19.0
aF-17.0
aF-18.0
aF-18.0
aF-18.0
aF-18.0
aF-18.0
aF-17.0
aF-17.0
aF-17.0
aF-18.0
aF-17.0
aF-17.0
aF-10.0
aF-16.0
aF-16.0
aF-17.0
aF-16.0
aF-14.0
aF-19.0
aF-13.0
aF-13.0
aF-16.0
aF-19.0
aF-18.0
aF-17.0
aF-14.0
aF-15.0
aF-20.0
aF-17.0
aF-17.0
aF-18.0
aF-18.0
aF-15.0
aF-16.0
aF-18.0
aF-18.0
aF-15.0
aF-19.0
aF-18.0
aF-8.0
aF-13.0
aF-17.0
aF-12.0
aF-20.0
aF-7.0
aF-18.0
aF-16.0
aF-16.0
aF-13.0
aF-15.0
aF-9.0
aF-10.0
aF-13.0
aF-16.0
aF-13.0
aF-17.0
aF1.0
aF-7.0
aF-15.0
aF-13.0
aF-13.0
aF-12.0
aF-15.0
aF-16.0
aF-18.0
aF-7.0
aF-6.0
aF-4.0
aF-7.0
aF-16.0
aF-16.0
aF-16.0
aF-11.0
aF-13.0
aF-13.0
aF-11.0
aF-3.0
aF-12.0
aF-20.0
aF-16.0
aF-21.0
aF-15.0
aF-13.0
aF-18.0
aag200
ag200
ag200
ag200
ag200
ag200
ag200
ag200
ag200
ag200
ag200
ag200
ag200
ag200
ag200
ag200
ag200
ag200
ag200
ag200
ag200
ag200
ag200
ag200
ag200
ag200
ag200
ag200
ag200
ag200
ag200
ag200
ag200
ag200
as.