(dp0
S't_log'
p1
(lp2
I60000
aI70000
aI80000
aI90000
aI100000
aI110000
aI120000
aI130000
aI140000
aI150000
aI160000
aI170000
aI180000
aI190000
aI200000
aI210000
aI220000
aI230000
aI240000
aI250000
aI260000
aI270000
aI280000
aI290000
aI300000
aI310000
aI320000
aI330000
aI340000
aI350000
aI360000
aI370000
aI380000
aI390000
aI400000
aI410000
aI420000
aI430000
aI440000
aI450000
aI460000
aI470000
aI480000
aI490000
aI500000
aI510000
aI520000
aI530000
aI540000
aI550000
aI560000
aI570000
aI580000
aI590000
aI600000
aI610000
aI620000
aI630000
aI640000
aI650000
aI660000
aI670000
aI680000
aI690000
aI700000
aI710000
aI720000
aI730000
aI740000
aI750000
aI760000
aI770000
aI780000
aI790000
aI800000
aI810000
aI820000
aI830000
aI840000
aI850000
aI860000
aI870000
aI880000
aI890000
aI900000
aI910000
aI920000
aI930000
aI940000
aI950000
aI960000
aI970000
aI980000
aI990000
aI1000000
asS'mean_reward_log'
p3
(lp4
cnumpy.core.multiarray
scalar
p5
(cnumpy
dtype
p6
(S'f8'
p7
I0
I1
tp8
Rp9
(I3
S'<'
p10
NNNI-1
I-1
I0
tp11
bS'\x00\x00\x00\x00\x00<4\xc0'
p12
tp13
Rp14
ag5
(g9
S'3333334\xc0'
p15
tp16
Rp17
ag5
(g9
S'\x0c\xfa\x82\xbe\xa0/4\xc0'
p18
tp19
Rp20
ag5
(g9
S'\r\xdb\xcd\xf2$24\xc0'
p21
tp22
Rp23
ag5
(g9
S'\x00\x00\x00\x00\x00@4\xc0'
p24
tp25
Rp26
ag5
(g9
S'=\n\xd7\xa3p=4\xc0'
p27
tp28
Rp29
ag5
(g9
S'\x00\x00\x00\x00\x00@4\xc0'
p30
tp31
Rp32
ag5
(g9
S'\xf6(\\\x8f\xc254\xc0'
p33
tp34
Rp35
ag5
(g9
S'=\n\xd7\xa3p=4\xc0'
p36
tp37
Rp38
ag5
(g9
S'\xb8\x1e\x85\xebQ84\xc0'
p39
tp40
Rp41
ag5
(g9
S'3333334\xc0'
p42
tp43
Rp44
ag5
(g9
S'\xb8\x1e\x85\xebQ84\xc0'
p45
tp46
Rp47
ag5
(g9
S'\xf6(\\\x8f\xc254\xc0'
p48
tp49
Rp50
ag5
(g9
S'\xb8\x1e\x85\xebQ84\xc0'
p51
tp52
Rp53
ag5
(g9
S')\\\x8f\xc2\xf5(4\xc0'
p54
tp55
Rp56
ag5
(g9
S'fffff&4\xc0'
p57
tp58
Rp59
ag5
(g9
S'\xaeG\xe1z\x14.4\xc0'
p60
tp61
Rp62
ag5
(g9
S'\xe1z\x14\xaeG!4\xc0'
p63
tp64
Rp65
ag5
(g9
S'\x9a\x99\x99\x99\x99\x194\xc0'
p66
tp67
Rp68
ag5
(g9
S'\x8f\xc2\xf5(\\\x0f4\xc0'
p69
tp70
Rp71
ag5
(g9
S'\x8f\xc2\xf5(\\\x0f4\xc0'
p72
tp73
Rp74
ag5
(g9
S'\xc3\xf5(\\\x8f\x024\xc0'
p75
tp76
Rp77
ag5
(g9
S'\xf6(\\\x8f\xc2\xf53\xc0'
p78
tp79
Rp80
ag5
(g9
S'\x14\xaeG\xe1z\xd43\xc0'
p81
tp82
Rp83
ag5
(g9
S'=\n\xd7\xa3p\xbd3\xc0'
p84
tp85
Rp86
ag5
(g9
S'H\xe1z\x14\xae\xc73\xc0'
p87
tp88
Rp89
ag5
(g9
S'33333\xb33\xc0'
p90
tp91
Rp92
ag5
(g9
S'\\\x8f\xc2\xf5(\x9c3\xc0'
p93
tp94
Rp95
ag5
(g9
S'\xd7\xa3p=\n\x973\xc0'
p96
tp97
Rp98
ag5
(g9
S'=\n\xd7\xa3p}3\xc0'
p99
tp100
Rp101
ag5
(g9
S'33333s3\xc0'
p102
tp103
Rp104
ag5
(g9
S'\xecQ\xb8\x1e\x85k3\xc0'
p105
tp106
Rp107
ag5
(g9
S'\xa4p=\n\xd7c3\xc0'
p108
tp109
Rp110
ag5
(g9
S'\xcd\xcc\xcc\xcc\xccL3\xc0'
p111
tp112
Rp113
ag5
(g9
S'H\xe1z\x14\xaeG3\xc0'
p114
tp115
Rp116
ag5
(g9
S'\xc3\xf5(\\\x8fB3\xc0'
p117
tp118
Rp119
ag5
(g9
S'\xf6(\\\x8f\xc253\xc0'
p120
tp121
Rp122
ag5
(g9
S'fffff&3\xc0'
p123
tp124
Rp125
ag5
(g9
S'\x1f\x85\xebQ\xb8\x1e3\xc0'
p126
tp127
Rp128
ag5
(g9
S'\xe1z\x14\xaeG!3\xc0'
p129
tp130
Rp131
ag5
(g9
S'\xa4p=\n\xd7#3\xc0'
p132
tp133
Rp134
ag5
(g9
S'\xf6(\\\x8f\xc253\xc0'
p135
tp136
Rp137
ag5
(g9
S'\xf6(\\\x8f\xc253\xc0'
p138
tp139
Rp140
ag5
(g9
S'3333333\xc0'
p141
tp142
Rp143
ag5
(g9
S'\xb8\x1e\x85\xebQ83\xc0'
p144
tp145
Rp146
ag5
(g9
S'\xc3\xf5(\\\x8fB3\xc0'
p147
tp148
Rp149
ag5
(g9
S'\n\xd7\xa3p=J3\xc0'
p150
tp151
Rp152
ag5
(g9
S'\xcd\xcc\xcc\xcc\xccL3\xc0'
p153
tp154
Rp155
ag5
(g9
S'\x8f\xc2\xf5(\\O3\xc0'
p156
tp157
Rp158
ag5
(g9
S'H\xe1z\x14\xaeG3\xc0'
p159
tp160
Rp161
ag5
(g9
S'\x9a\x99\x99\x99\x99Y3\xc0'
p162
tp163
Rp164
ag5
(g9
S'\x85\xebQ\xb8\x1eE3\xc0'
p165
tp166
Rp167
ag5
(g9
S'\xb8\x1e\x85\xebQ83\xc0'
p168
tp169
Rp170
ag5
(g9
S'\x8f\xc2\xf5(\\\x0f3\xc0'
p171
tp172
Rp173
ag5
(g9
S'\x8f\xc2\xf5(\\\x0f3\xc0'
p174
tp175
Rp176
ag5
(g9
S'\n\xd7\xa3p=\n3\xc0'
p177
tp178
Rp179
ag5
(g9
S'33333\xf32\xc0'
p180
tp181
Rp182
ag5
(g9
S')\\\x8f\xc2\xf5\xe82\xc0'
p183
tp184
Rp185
ag5
(g9
S'\xb8\x1e\x85\xebQ\xf82\xc0'
p186
tp187
Rp188
ag5
(g9
S'fffff\xe62\xc0'
p189
tp190
Rp191
ag5
(g9
S'=\n\xd7\xa3p\xbd2\xc0'
p192
tp193
Rp194
ag5
(g9
S'=\n\xd7\xa3p\xbd2\xc0'
p195
tp196
Rp197
ag5
(g9
S'\xa4p=\n\xd7\xa32\xc0'
p198
tp199
Rp200
ag5
(g9
S'\xa4p=\n\xd7\xa32\xc0'
p201
tp202
Rp203
ag5
(g9
S'\\\x8f\xc2\xf5(\x9c2\xc0'
p204
tp205
Rp206
ag5
(g9
S'\xa4p=\n\xd7\xa32\xc0'
p207
tp208
Rp209
ag5
(g9
S'\xd7\xa3p=\n\x972\xc0'
p210
tp211
Rp212
ag5
(g9
S'\x85\xebQ\xb8\x1e\x852\xc0'
p213
tp214
Rp215
ag5
(g9
S'\x00\x00\x00\x00\x00\x802\xc0'
p216
tp217
Rp218
ag5
(g9
S'\x85\xebQ\xb8\x1e\x852\xc0'
p219
tp220
Rp221
ag5
(g9
S'\x00\x00\x00\x00\x00\x802\xc0'
p222
tp223
Rp224
ag5
(g9
S'\xe1z\x14\xaeGa2\xc0'
p225
tp226
Rp227
ag5
(g9
S'\xc3\xf5(\\\x8fB2\xc0'
p228
tp229
Rp230
ag5
(g9
S'\xe1z\x14\xaeGa2\xc0'
p231
tp232
Rp233
ag5
(g9
S'\xa4p=\n\xd7c2\xc0'
p234
tp235
Rp236
ag5
(g9
S'\x8f\xc2\xf5(\\O2\xc0'
p237
tp238
Rp239
ag5
(g9
S'\n\xd7\xa3p=J2\xc0'
p240
tp241
Rp242
ag5
(g9
S'\xecQ\xb8\x1e\x85+2\xc0'
p243
tp244
Rp245
ag5
(g9
S'\xe1z\x14\xaeG!2\xc0'
p246
tp247
Rp248
ag5
(g9
S'q=\n\xd7\xa3\xf01\xc0'
p249
tp250
Rp251
ag5
(g9
S'H\xe1z\x14\xae\x072\xc0'
p252
tp253
Rp254
ag5
(g9
S'\xecQ\xb8\x1e\x85\xeb1\xc0'
p255
tp256
Rp257
ag5
(g9
S'\x85\xebQ\xb8\x1e\xc51\xc0'
p258
tp259
Rp260
ag5
(g9
S'\xc3\xf5(\\\x8f\xc21\xc0'
p261
tp262
Rp263
ag5
(g9
S')\\\x8f\xc2\xf5\xa81\xc0'
p264
tp265
Rp266
ag5
(g9
S'\xecQ\xb8\x1e\x85\xab1\xc0'
p267
tp268
Rp269
ag5
(g9
S'\n\xd7\xa3p=\x8a1\xc0'
p270
tp271
Rp272
ag5
(g9
S'\xcd\xcc\xcc\xcc\xcc\x8c1\xc0'
p273
tp274
Rp275
ag5
(g9
S'\xaeG\xe1z\x14n1\xc0'
p276
tp277
Rp278
ag5
(g9
S'\xa4p=\n\xd7c1\xc0'
p279
tp280
Rp281
ag5
(g9
S')\\\x8f\xc2\xf5h1\xc0'
p282
tp283
Rp284
ag5
(g9
S'{\x14\xaeG\xe1:1\xc0'
p285
tp286
Rp287
ag5
(g9
S'q=\n\xd7\xa301\xc0'
p288
tp289
Rp290
ag5
(g9
S')\\\x8f\xc2\xf5(1\xc0'
p291
tp292
Rp293
ag5
(g9
S'q=\n\xd7\xa301\xc0'
p294
tp295
Rp296
asS'learning_rate_log'
p297
(lp298
F0.0001
aF0.0001
aF0.0001
aF0.0001
aF0.0001
aF0.0001
aF0.0001
aF0.0001
aF0.0001
aF0.0001
aF0.0001
aF0.0001
aF0.0001
aF0.0001
aF0.0001
aF0.0001
aF0.0001
aF0.0001
aF0.0001
aF0.0001
aF0.0001
aF0.0001
aF0.0001
aF0.0001
aF0.0001
aF0.0001
aF0.0001
aF0.0001
aF0.0001
aF0.0001
aF0.0001
aF0.0001
aF0.0001
aF0.0001
aF0.0001
aF0.0001
aF0.0001
aF0.0001
aF0.0001
aF0.0001
aF0.0001
aF0.0001
aF0.0001
aF0.0001
aF0.0001
aF0.0001
aF0.0001
aF0.0001
aF0.0001
aF0.0001
aF0.0001
aF0.0001
aF0.0001
aF0.0001
aF0.0001
aF0.0001
aF0.0001
aF0.0001
aF0.0001
aF0.0001
aF0.0001
aF0.0001
aF0.0001
aF0.0001
aF0.0001
aF0.0001
aF0.0001
aF0.0001
aF0.0001
aF0.0001
aF0.0001
aF0.0001
aF0.0001
aF0.0001
aF0.0001
aF0.0001
aF0.0001
aF0.0001
aF0.0001
aF0.0001
aF0.0001
aF0.0001
aF0.0001
aF0.0001
aF0.0001
aF0.0001
aF0.0001
aF0.0001
aF0.0001
aF0.0001
aF0.0001
aF0.0001
aF0.0001
aF0.0001
aF0.0001
asS'exploration_log'
p299
(lp300
F0.97
aF0.965
aF0.96
aF0.955
aF0.95
aF0.945
aF0.94
aF0.935
aF0.9299999999999999
aF0.925
aF0.92
aF0.915
aF0.91
aF0.905
aF0.9
aF0.895
aF0.89
aF0.885
aF0.88
aF0.875
aF0.87
aF0.865
aF0.86
aF0.855
aF0.85
aF0.845
aF0.84
aF0.835
aF0.83
aF0.825
aF0.8200000000000001
aF0.815
aF0.81
aF0.8049999999999999
aF0.8
aF0.795
aF0.79
aF0.785
aF0.78
aF0.775
aF0.77
aF0.765
aF0.76
aF0.755
aF0.75
aF0.745
aF0.74
aF0.735
aF0.73
aF0.725
aF0.72
aF0.7150000000000001
aF0.71
aF0.7050000000000001
aF0.7
aF0.6950000000000001
aF0.69
aF0.685
aF0.6799999999999999
aF0.675
aF0.6699999999999999
aF0.665
aF0.6599999999999999
aF0.655
aF0.65
aF0.645
aF0.64
aF0.635
aF0.63
aF0.625
aF0.62
aF0.615
aF0.61
aF0.605
aF0.6
aF0.595
aF0.5900000000000001
aF0.585
aF0.5800000000000001
aF0.575
aF0.5700000000000001
aF0.565
aF0.56
aF0.5549999999999999
aF0.55
aF0.5449999999999999
aF0.54
aF0.5349999999999999
aF0.53
aF0.525
aF0.52
aF0.515
aF0.51
aF0.505
aF0.5
asS'best_mean_log'
p301
(lp302
F-inf
aF-inf
aF-inf
aF-inf
ag5
(g9
S'3333334\xc0'
p303
tp304
Rp305
ag305
ag305
ag305
ag305
ag305
ag305
ag305
ag305
ag305
ag5
(g9
S')\\\x8f\xc2\xf5(4\xc0'
p306
tp307
Rp308
ag5
(g9
S'\xe1z\x14\xaeG!4\xc0'
p309
tp310
Rp311
ag311
ag311
ag5
(g9
S'\x14\xaeG\xe1z\x144\xc0'
p312
tp313
Rp314
ag5
(g9
S'\xcd\xcc\xcc\xcc\xcc\x0c4\xc0'
p315
tp316
Rp317
ag5
(g9
S'\xc3\xf5(\\\x8f\x024\xc0'
p318
tp319
Rp320
ag5
(g9
S'\x00\x00\x00\x00\x00\x004\xc0'
p321
tp322
Rp323
ag5
(g9
S'\xf6(\\\x8f\xc2\xf53\xc0'
p324
tp325
Rp326
ag5
(g9
S'\x14\xaeG\xe1z\xd43\xc0'
p327
tp328
Rp329
ag5
(g9
S'=\n\xd7\xa3p\xbd3\xc0'
p330
tp331
Rp332
ag5
(g9
S'\xf6(\\\x8f\xc2\xb53\xc0'
p333
tp334
Rp335
ag5
(g9
S'33333\xb33\xc0'
p336
tp337
Rp338
ag5
(g9
S'\\\x8f\xc2\xf5(\x9c3\xc0'
p339
tp340
Rp341
ag5
(g9
S'\x14\xaeG\xe1z\x943\xc0'
p342
tp343
Rp344
ag5
(g9
S'=\n\xd7\xa3p}3\xc0'
p345
tp346
Rp347
ag5
(g9
S'\xaeG\xe1z\x14n3\xc0'
p348
tp349
Rp350
ag5
(g9
S')\\\x8f\xc2\xf5h3\xc0'
p351
tp352
Rp353
ag5
(g9
S'R\xb8\x1e\x85\xebQ3\xc0'
p354
tp355
Rp356
ag5
(g9
S'H\xe1z\x14\xaeG3\xc0'
p357
tp358
Rp359
ag359
ag5
(g9
S'=\n\xd7\xa3p=3\xc0'
p360
tp361
Rp362
ag5
(g9
S'\xf6(\\\x8f\xc253\xc0'
p363
tp364
Rp365
ag5
(g9
S'fffff&3\xc0'
p366
tp367
Rp368
ag5
(g9
S'\x1f\x85\xebQ\xb8\x1e3\xc0'
p369
tp370
Rp371
ag5
(g9
S'\x9a\x99\x99\x99\x99\x193\xc0'
p372
tp373
Rp374
ag374
ag374
ag374
ag374
ag374
ag374
ag374
ag374
ag374
ag374
ag374
ag374
ag374
ag5
(g9
S'\x8f\xc2\xf5(\\\x0f3\xc0'
p375
tp376
Rp377
ag5
(g9
S'\xcd\xcc\xcc\xcc\xcc\x0c3\xc0'
p378
tp379
Rp380
ag5
(g9
S'H\xe1z\x14\xae\x073\xc0'
p381
tp382
Rp383
ag5
(g9
S'33333\xf32\xc0'
p384
tp385
Rp386
ag5
(g9
S')\\\x8f\xc2\xf5\xe82\xc0'
p387
tp388
Rp389
ag5
(g9
S'\xa4p=\n\xd7\xe32\xc0'
p390
tp391
Rp392
ag392
ag5
(g9
S'=\n\xd7\xa3p\xbd2\xc0'
p393
tp394
Rp395
ag395
ag5
(g9
S'\xa4p=\n\xd7\xa32\xc0'
p396
tp397
Rp398
ag5
(g9
S'\xd7\xa3p=\n\x972\xc0'
p399
tp400
Rp401
ag401
ag5
(g9
S'\n\xd7\xa3p=\x8a2\xc0'
p402
tp403
Rp404
ag404
ag5
(g9
S'=\n\xd7\xa3p}2\xc0'
p405
tp406
Rp407
ag407
ag407
ag5
(g9
S'\xb8\x1e\x85\xebQx2\xc0'
p408
tp409
Rp410
ag5
(g9
S'\xe1z\x14\xaeGa2\xc0'
p411
tp412
Rp413
ag5
(g9
S'\xc3\xf5(\\\x8fB2\xc0'
p414
tp415
Rp416
ag416
ag416
ag416
ag416
ag5
(g9
S'fffff&2\xc0'
p417
tp418
Rp419
ag5
(g9
S'\x1f\x85\xebQ\xb8\x1e2\xc0'
p420
tp421
Rp422
ag5
(g9
S'q=\n\xd7\xa3\xf01\xc0'
p423
tp424
Rp425
ag5
(g9
S'\xaeG\xe1z\x14\xee1\xc0'
p426
tp427
Rp428
ag5
(g9
S'\xecQ\xb8\x1e\x85\xeb1\xc0'
p429
tp430
Rp431
ag5
(g9
S'\x85\xebQ\xb8\x1e\xc51\xc0'
p432
tp433
Rp434
ag5
(g9
S'=\n\xd7\xa3p\xbd1\xc0'
p435
tp436
Rp437
ag5
(g9
S')\\\x8f\xc2\xf5\xa81\xc0'
p438
tp439
Rp440
ag5
(g9
S'\x9a\x99\x99\x99\x99\x991\xc0'
p441
tp442
Rp443
ag5
(g9
S'\n\xd7\xa3p=\x8a1\xc0'
p444
tp445
Rp446
ag5
(g9
S'H\xe1z\x14\xae\x871\xc0'
p447
tp448
Rp449
ag5
(g9
S'\xaeG\xe1z\x14n1\xc0'
p450
tp451
Rp452
ag5
(g9
S'\xe1z\x14\xaeGa1\xc0'
p453
tp454
Rp455
ag455
ag5
(g9
S'{\x14\xaeG\xe1:1\xc0'
p456
tp457
Rp458
ag5
(g9
S'q=\n\xd7\xa301\xc0'
p459
tp460
Rp461
ag5
(g9
S')\\\x8f\xc2\xf5(1\xc0'
p462
tp463
Rp464
ag5
(g9
S'\\\x8f\xc2\xf5(\x1c1\xc0'
p465
tp466
Rp467
asS'episodes_log'
p468
(lp469
(lp470
F-21.0
aF-20.0
aF-19.0
aF-21.0
aF-20.0
aF-19.0
aF-21.0
aF-21.0
aF-21.0
aF-20.0
aF-21.0
aF-20.0
aF-19.0
aF-21.0
aF-20.0
aF-19.0
aF-19.0
aF-21.0
aF-20.0
aF-19.0
aF-20.0
aF-21.0
aF-21.0
aF-19.0
aF-19.0
aF-19.0
aF-20.0
aF-19.0
aF-21.0
aF-21.0
aF-20.0
aF-21.0
aF-21.0
aF-20.0
aF-21.0
aF-21.0
aF-21.0
aF-21.0
aF-20.0
aF-21.0
aF-21.0
aF-19.0
aF-21.0
aF-20.0
aF-20.0
aF-20.0
aF-21.0
aF-20.0
aF-20.0
aF-19.0
aF-21.0
aF-18.0
aF-21.0
aF-20.0
aF-21.0
aF-20.0
aF-21.0
aF-21.0
aF-21.0
aF-20.0
aF-19.0
aF-20.0
aF-21.0
aF-21.0
aF-20.0
aF-19.0
aF-21.0
aF-20.0
aF-20.0
aF-21.0
aF-20.0
aF-21.0
aF-20.0
aF-19.0
aF-19.0
aF-21.0
aF-18.0
aF-20.0
aF-21.0
aF-20.0
aF-21.0
aF-20.0
aF-21.0
aF-20.0
aF-20.0
aF-19.0
aF-21.0
aF-21.0
aF-21.0
aF-21.0
aF-20.0
aF-20.0
aF-21.0
aF-18.0
aF-19.0
aF-20.0
aF-21.0
aF-19.0
aF-21.0
aF-21.0
aF-21.0
aF-21.0
aF-21.0
aF-21.0
aF-21.0
aF-20.0
aF-21.0
aF-21.0
aF-19.0
aF-19.0
aF-21.0
aF-21.0
aF-20.0
aF-19.0
aF-19.0
aF-21.0
aF-20.0
aF-20.0
aF-21.0
aF-21.0
aF-20.0
aF-21.0
aF-21.0
aF-20.0
aF-21.0
aF-18.0
aF-21.0
aF-17.0
aF-20.0
aF-20.0
aF-21.0
aF-19.0
aF-20.0
aF-21.0
aF-21.0
aF-21.0
aF-20.0
aF-18.0
aF-21.0
aF-21.0
aF-21.0
aF-21.0
aF-19.0
aF-21.0
aF-20.0
aF-19.0
aF-20.0
aF-21.0
aF-21.0
aF-21.0
aF-21.0
aF-19.0
aF-21.0
aF-20.0
aF-21.0
aF-21.0
aF-20.0
aF-21.0
aF-18.0
aF-20.0
aF-19.0
aF-21.0
aF-20.0
aF-21.0
aF-21.0
aF-20.0
aF-20.0
aF-19.0
aF-21.0
aF-20.0
aF-19.0
aF-20.0
aF-20.0
aF-20.0
aF-19.0
aF-21.0
aF-21.0
aF-21.0
aF-19.0
aF-20.0
aF-21.0
aF-19.0
aF-20.0
aF-21.0
aF-21.0
aF-18.0
aF-20.0
aF-20.0
aF-21.0
aF-21.0
aF-21.0
aF-20.0
aF-21.0
aF-21.0
aF-20.0
aF-21.0
aF-20.0
aF-19.0
aF-21.0
aF-19.0
aF-20.0
aF-21.0
aF-21.0
aF-19.0
aF-21.0
aF-21.0
aF-20.0
aF-20.0
aF-20.0
aF-18.0
aF-21.0
aF-20.0
aF-18.0
aF-19.0
aF-18.0
aF-19.0
aF-21.0
aF-20.0
aF-21.0
aF-21.0
aF-21.0
aF-21.0
aF-21.0
aF-21.0
aF-20.0
aF-19.0
aF-20.0
aF-21.0
aF-19.0
aF-20.0
aF-20.0
aF-20.0
aF-21.0
aF-20.0
aF-21.0
aF-21.0
aF-21.0
aF-21.0
aF-20.0
aF-16.0
aF-21.0
aF-19.0
aF-18.0
aF-20.0
aF-20.0
aF-20.0
aF-20.0
aF-19.0
aF-20.0
aF-20.0
aF-20.0
aF-21.0
aF-20.0
aF-21.0
aF-21.0
aF-20.0
aF-18.0
aF-20.0
aF-17.0
aF-20.0
aF-21.0
aF-21.0
aF-19.0
aF-20.0
aF-19.0
aF-19.0
aF-19.0
aF-21.0
aF-21.0
aF-21.0
aF-20.0
aF-20.0
aF-21.0
aF-21.0
aF-20.0
aF-21.0
aF-21.0
aF-17.0
aF-21.0
aF-16.0
aF-19.0
aF-20.0
aF-20.0
aF-19.0
aF-21.0
aF-21.0
aF-19.0
aF-20.0
aF-19.0
aF-19.0
aF-20.0
aF-20.0
aF-19.0
aF-19.0
aF-16.0
aF-18.0
aF-20.0
aF-20.0
aF-20.0
aF-20.0
aF-17.0
aF-20.0
aF-17.0
aF-21.0
aF-20.0
aF-19.0
aF-20.0
aF-19.0
aF-18.0
aF-20.0
aF-19.0
aF-17.0
aF-21.0
aF-20.0
aF-21.0
aF-21.0
aF-20.0
aF-20.0
aF-20.0
aF-21.0
aF-20.0
aF-21.0
aF-19.0
aF-21.0
aF-20.0
aF-17.0
aF-19.0
aF-19.0
aF-21.0
aF-21.0
aF-17.0
aF-19.0
aF-19.0
aF-20.0
aF-20.0
aF-16.0
aF-21.0
aF-18.0
aF-21.0
aF-20.0
aF-20.0
aF-19.0
aF-18.0
aF-20.0
aF-17.0
aF-20.0
aF-17.0
aF-18.0
aF-20.0
aF-19.0
aF-20.0
aF-21.0
aF-19.0
aF-17.0
aF-17.0
aF-18.0
aF-20.0
aF-20.0
aF-18.0
aF-20.0
aF-19.0
aF-20.0
aF-21.0
aF-17.0
aF-21.0
aF-20.0
aF-20.0
aF-20.0
aF-20.0
aF-18.0
aF-21.0
aF-20.0
aF-19.0
aF-20.0
aF-18.0
aF-18.0
aF-19.0
aF-20.0
aF-20.0
aF-21.0
aF-21.0
aF-17.0
aF-20.0
aF-15.0
aF-18.0
aF-19.0
aF-18.0
aF-20.0
aF-21.0
aF-20.0
aF-19.0
aF-18.0
aF-19.0
aF-20.0
aF-16.0
aF-17.0
aF-20.0
aF-19.0
aF-19.0
aF-18.0
aF-19.0
aF-20.0
aF-18.0
aF-19.0
aF-21.0
aF-19.0
aF-19.0
aF-18.0
aF-19.0
aF-17.0
aF-19.0
aF-18.0
aF-19.0
aF-21.0
aF-20.0
aF-20.0
aF-19.0
aF-21.0
aF-19.0
aF-20.0
aF-17.0
aF-21.0
aF-18.0
aF-19.0
aF-20.0
aF-20.0
aF-19.0
aF-20.0
aF-17.0
aF-21.0
aF-17.0
aF-21.0
aF-18.0
aF-19.0
aF-18.0
aF-18.0
aF-20.0
aF-20.0
aF-20.0
aF-21.0
aF-21.0
aF-21.0
aF-16.0
aF-16.0
aF-19.0
aF-19.0
aF-20.0
aF-17.0
aF-21.0
aF-19.0
aF-21.0
aF-18.0
aF-21.0
aF-20.0
aF-19.0
aF-20.0
aF-21.0
aF-19.0
aF-20.0
aF-20.0
aF-21.0
aF-19.0
aF-20.0
aF-17.0
aF-20.0
aF-20.0
aF-19.0
aF-18.0
aF-19.0
aF-20.0
aF-20.0
aF-18.0
aF-21.0
aF-20.0
aF-19.0
aF-20.0
aF-20.0
aF-20.0
aF-18.0
aF-20.0
aF-17.0
aF-21.0
aF-19.0
aF-18.0
aF-21.0
aF-20.0
aF-19.0
aF-19.0
aF-21.0
aF-17.0
aF-20.0
aF-20.0
aF-19.0
aF-21.0
aF-17.0
aF-17.0
aF-18.0
aF-19.0
aF-19.0
aF-20.0
aF-20.0
aF-19.0
aF-19.0
aF-19.0
aF-19.0
aF-21.0
aF-18.0
aF-21.0
aF-18.0
aF-20.0
aF-19.0
aF-21.0
aF-19.0
aF-19.0
aF-20.0
aF-20.0
aF-18.0
aF-19.0
aF-18.0
aF-18.0
aF-20.0
aF-17.0
aF-18.0
aF-21.0
aF-20.0
aF-18.0
aF-20.0
aF-19.0
aF-20.0
aF-21.0
aF-18.0
aF-21.0
aF-20.0
aF-20.0
aF-20.0
aF-17.0
aF-18.0
aF-20.0
aF-18.0
aF-19.0
aF-19.0
aF-17.0
aF-20.0
aF-14.0
aF-18.0
aF-19.0
aF-19.0
aF-17.0
aF-21.0
aF-19.0
aF-20.0
aF-16.0
aF-15.0
aF-17.0
aF-19.0
aF-18.0
aF-19.0
aF-21.0
aF-17.0
aF-20.0
aF-20.0
aF-19.0
aF-20.0
aF-18.0
aF-19.0
aF-20.0
aF-20.0
aF-18.0
aF-18.0
aF-20.0
aF-18.0
aF-21.0
aF-20.0
aF-19.0
aF-19.0
aF-18.0
aF-18.0
aF-20.0
aF-19.0
aF-17.0
aF-15.0
aF-21.0
aF-18.0
aF-18.0
aF-21.0
aF-19.0
aF-19.0
aF-21.0
aF-19.0
aF-18.0
aF-16.0
aF-20.0
aF-21.0
aF-17.0
aF-20.0
aF-18.0
aF-21.0
aF-21.0
aF-18.0
aF-20.0
aF-20.0
aF-18.0
aF-17.0
aF-20.0
aF-16.0
aF-20.0
aF-21.0
aF-17.0
aF-14.0
aF-20.0
aF-16.0
aF-16.0
aF-19.0
aF-16.0
aF-20.0
aF-19.0
aF-20.0
aF-20.0
aF-21.0
aF-18.0
aF-19.0
aF-16.0
aF-16.0
aF-19.0
aF-21.0
aF-18.0
aF-16.0
aF-18.0
aF-18.0
aF-20.0
aF-15.0
aF-18.0
aF-20.0
aF-19.0
aF-19.0
aF-19.0
aF-19.0
aF-20.0
aF-20.0
aF-18.0
aF-18.0
aF-20.0
aF-19.0
aF-17.0
aF-15.0
aF-20.0
aF-15.0
aF-11.0
aF-20.0
aF-21.0
aF-19.0
aF-19.0
aF-18.0
aF-21.0
aF-18.0
aF-19.0
aF-19.0
aF-16.0
aF-19.0
aF-17.0
aF-21.0
aF-18.0
aF-16.0
aF-18.0
aF-16.0
aF-20.0
aF-17.0
aF-21.0
aF-20.0
aF-18.0
aF-20.0
aF-18.0
aF-20.0
aF-19.0
aF-20.0
aF-17.0
aF-16.0
aF-21.0
aF-20.0
aF-20.0
aF-18.0
aF-18.0
aF-19.0
aF-15.0
aF-20.0
aF-20.0
aF-19.0
aF-19.0
aF-20.0
aF-18.0
aF-18.0
aF-19.0
aF-16.0
aF-20.0
aF-20.0
aF-17.0
aF-17.0
aF-18.0
aF-18.0
aF-18.0
aF-18.0
aF-19.0
aF-16.0
aF-16.0
aF-18.0
aF-17.0
aF-15.0
aF-16.0
aF-18.0
aF-20.0
aF-21.0
aF-18.0
aF-18.0
aF-19.0
aF-21.0
aF-17.0
aF-19.0
aF-20.0
aF-19.0
aF-17.0
aF-18.0
aF-19.0
aF-19.0
aF-16.0
aF-18.0
aF-16.0
aF-19.0
aF-17.0
aF-17.0
aF-19.0
aF-18.0
aF-16.0
aF-20.0
aF-21.0
aF-18.0
aF-18.0
aF-21.0
aF-15.0
aF-16.0
aF-13.0
aF-19.0
aF-17.0
aF-16.0
aF-19.0
aF-13.0
aF-19.0
aF-17.0
aF-15.0
aF-14.0
aF-19.0
aF-20.0
aF-18.0
aF-13.0
aF-12.0
aF-20.0
aF-17.0
aF-15.0
aF-19.0
aF-19.0
aF-18.0
aF-17.0
aF-17.0
aF-21.0
aF-21.0
aF-18.0
aF-16.0
aF-19.0
aF-17.0
aF-19.0
aF-16.0
aF-18.0
aF-13.0
aF-17.0
aF-17.0
aF-19.0
aF-21.0
aF-18.0
aF-15.0
aF-16.0
aF-17.0
aF-18.0
aF-18.0
aF-20.0
aF-20.0
aF-17.0
aF-19.0
aF-19.0
aF-20.0
aF-15.0
aF-15.0
aF-16.0
aF-18.0
aF-18.0
aF-16.0
aF-16.0
aF-19.0
aF-21.0
aF-19.0
aF-18.0
aF-13.0
aF-18.0
aF-15.0
aF-14.0
aF-15.0
aF-17.0
aF-21.0
aF-18.0
aF-18.0
aF-20.0
aF-13.0
aF-16.0
aF-20.0
aF-16.0
aF-18.0
aF-17.0
aF-18.0
aF-16.0
aF-17.0
aF-20.0
aF-17.0
aF-16.0
aF-15.0
aF-20.0
aF-16.0
aF-20.0
aF-18.0
aF-15.0
aF-21.0
aF-17.0
aF-18.0
aF-17.0
aF-13.0
aF-20.0
aF-17.0
aF-12.0
aF-15.0
aF-19.0
aF-15.0
aF-15.0
aF-17.0
aF-12.0
aF-17.0
aF-16.0
aF-19.0
aF-18.0
aF-16.0
aF-14.0
aF-13.0
aF-14.0
aF-17.0
aF-19.0
aF-16.0
aF-16.0
aF-17.0
aag470
ag470
ag470
ag470
ag470
ag470
ag470
ag470
ag470
ag470
ag470
ag470
ag470
ag470
ag470
ag470
ag470
ag470
ag470
ag470
ag470
ag470
ag470
ag470
ag470
ag470
ag470
ag470
ag470
ag470
ag470
ag470
ag470
ag470
ag470
ag470
ag470
ag470
ag470
ag470
ag470
ag470
ag470
ag470
ag470
ag470
ag470
ag470
ag470
ag470
ag470
ag470
ag470
ag470
ag470
ag470
ag470
ag470
ag470
ag470
ag470
ag470
ag470
ag470
ag470
ag470
ag470
ag470
ag470
ag470
ag470
ag470
ag470
ag470
ag470
ag470
ag470
ag470
ag470
ag470
ag470
ag470
ag470
ag470
ag470
ag470
ag470
ag470
ag470
ag470
ag470
ag470
ag470
ag470
as.