(dp0
S't_log'
p1
(lp2
I60000
aI70000
aI80000
aI90000
aI100000
aI110000
aI120000
aI130000
aI140000
aI150000
aI160000
aI170000
aI180000
aI190000
aI200000
aI210000
aI220000
aI230000
aI240000
aI250000
aI260000
aI270000
aI280000
aI290000
aI300000
aI310000
aI320000
aI330000
aI340000
aI350000
aI360000
aI370000
aI380000
aI390000
aI400000
aI410000
aI420000
aI430000
aI440000
aI450000
aI460000
aI470000
aI480000
aI490000
aI500000
aI510000
aI520000
aI530000
aI540000
aI550000
aI560000
aI570000
aI580000
aI590000
aI600000
asS'mean_reward_log'
p3
(lp4
cnumpy.core.multiarray
scalar
p5
(cnumpy
dtype
p6
(S'f8'
p7
I0
I1
tp8
Rp9
(I3
S'<'
p10
NNNI-1
I-1
I0
tp11
bS'\x00\x00\x00\x00\x00<4\xc0'
p12
tp13
Rp14
ag5
(g9
S'3333334\xc0'
p15
tp16
Rp17
ag5
(g9
S'\x0c\xfa\x82\xbe\xa0/4\xc0'
p18
tp19
Rp20
ag5
(g9
S'\r\xdb\xcd\xf2$24\xc0'
p21
tp22
Rp23
ag5
(g9
S'\x00\x00\x00\x00\x00@4\xc0'
p24
tp25
Rp26
ag5
(g9
S'=\n\xd7\xa3p=4\xc0'
p27
tp28
Rp29
ag5
(g9
S'\x00\x00\x00\x00\x00@4\xc0'
p30
tp31
Rp32
ag5
(g9
S'\xf6(\\\x8f\xc254\xc0'
p33
tp34
Rp35
ag5
(g9
S'=\n\xd7\xa3p=4\xc0'
p36
tp37
Rp38
ag5
(g9
S'\xb8\x1e\x85\xebQ84\xc0'
p39
tp40
Rp41
ag5
(g9
S'3333334\xc0'
p42
tp43
Rp44
ag5
(g9
S'\xb8\x1e\x85\xebQ84\xc0'
p45
tp46
Rp47
ag5
(g9
S'\xf6(\\\x8f\xc254\xc0'
p48
tp49
Rp50
ag5
(g9
S'\xb8\x1e\x85\xebQ84\xc0'
p51
tp52
Rp53
ag5
(g9
S')\\\x8f\xc2\xf5(4\xc0'
p54
tp55
Rp56
ag5
(g9
S'fffff&4\xc0'
p57
tp58
Rp59
ag5
(g9
S'\xaeG\xe1z\x14.4\xc0'
p60
tp61
Rp62
ag5
(g9
S'\xe1z\x14\xaeG!4\xc0'
p63
tp64
Rp65
ag5
(g9
S'\x9a\x99\x99\x99\x99\x194\xc0'
p66
tp67
Rp68
ag5
(g9
S'\x8f\xc2\xf5(\\\x0f4\xc0'
p69
tp70
Rp71
ag5
(g9
S'\x8f\xc2\xf5(\\\x0f4\xc0'
p72
tp73
Rp74
ag5
(g9
S'\xc3\xf5(\\\x8f\x024\xc0'
p75
tp76
Rp77
ag5
(g9
S'\xf6(\\\x8f\xc2\xf53\xc0'
p78
tp79
Rp80
ag5
(g9
S'\x14\xaeG\xe1z\xd43\xc0'
p81
tp82
Rp83
ag5
(g9
S'=\n\xd7\xa3p\xbd3\xc0'
p84
tp85
Rp86
ag5
(g9
S'H\xe1z\x14\xae\xc73\xc0'
p87
tp88
Rp89
ag5
(g9
S'33333\xb33\xc0'
p90
tp91
Rp92
ag5
(g9
S'\\\x8f\xc2\xf5(\x9c3\xc0'
p93
tp94
Rp95
ag5
(g9
S'\xd7\xa3p=\n\x973\xc0'
p96
tp97
Rp98
ag5
(g9
S'=\n\xd7\xa3p}3\xc0'
p99
tp100
Rp101
ag5
(g9
S'33333s3\xc0'
p102
tp103
Rp104
ag5
(g9
S'\xecQ\xb8\x1e\x85k3\xc0'
p105
tp106
Rp107
ag5
(g9
S'\xa4p=\n\xd7c3\xc0'
p108
tp109
Rp110
ag5
(g9
S'\xcd\xcc\xcc\xcc\xccL3\xc0'
p111
tp112
Rp113
ag5
(g9
S'H\xe1z\x14\xaeG3\xc0'
p114
tp115
Rp116
ag5
(g9
S'\xc3\xf5(\\\x8fB3\xc0'
p117
tp118
Rp119
ag5
(g9
S'\xf6(\\\x8f\xc253\xc0'
p120
tp121
Rp122
ag5
(g9
S'fffff&3\xc0'
p123
tp124
Rp125
ag5
(g9
S'\x1f\x85\xebQ\xb8\x1e3\xc0'
p126
tp127
Rp128
ag5
(g9
S'\xe1z\x14\xaeG!3\xc0'
p129
tp130
Rp131
ag5
(g9
S'\xa4p=\n\xd7#3\xc0'
p132
tp133
Rp134
ag5
(g9
S'\xf6(\\\x8f\xc253\xc0'
p135
tp136
Rp137
ag5
(g9
S'\xf6(\\\x8f\xc253\xc0'
p138
tp139
Rp140
ag5
(g9
S'3333333\xc0'
p141
tp142
Rp143
ag5
(g9
S'\xb8\x1e\x85\xebQ83\xc0'
p144
tp145
Rp146
ag5
(g9
S'\xc3\xf5(\\\x8fB3\xc0'
p147
tp148
Rp149
ag5
(g9
S'\n\xd7\xa3p=J3\xc0'
p150
tp151
Rp152
ag5
(g9
S'\xcd\xcc\xcc\xcc\xccL3\xc0'
p153
tp154
Rp155
ag5
(g9
S'\x8f\xc2\xf5(\\O3\xc0'
p156
tp157
Rp158
ag5
(g9
S'H\xe1z\x14\xaeG3\xc0'
p159
tp160
Rp161
ag5
(g9
S'\x9a\x99\x99\x99\x99Y3\xc0'
p162
tp163
Rp164
ag5
(g9
S'\x85\xebQ\xb8\x1eE3\xc0'
p165
tp166
Rp167
ag5
(g9
S'\xb8\x1e\x85\xebQ83\xc0'
p168
tp169
Rp170
ag5
(g9
S'\x8f\xc2\xf5(\\\x0f3\xc0'
p171
tp172
Rp173
ag5
(g9
S'\x8f\xc2\xf5(\\\x0f3\xc0'
p174
tp175
Rp176
asS'learning_rate_log'
p177
(lp178
F0.0001
aF0.0001
aF0.0001
aF0.0001
aF0.0001
aF0.0001
aF0.0001
aF0.0001
aF0.0001
aF0.0001
aF0.0001
aF0.0001
aF0.0001
aF0.0001
aF0.0001
aF0.0001
aF0.0001
aF0.0001
aF0.0001
aF0.0001
aF0.0001
aF0.0001
aF0.0001
aF0.0001
aF0.0001
aF0.0001
aF0.0001
aF0.0001
aF0.0001
aF0.0001
aF0.0001
aF0.0001
aF0.0001
aF0.0001
aF0.0001
aF0.0001
aF0.0001
aF0.0001
aF0.0001
aF0.0001
aF0.0001
aF0.0001
aF0.0001
aF0.0001
aF0.0001
aF0.0001
aF0.0001
aF0.0001
aF0.0001
aF0.0001
aF0.0001
aF0.0001
aF0.0001
aF0.0001
aF0.0001
asS'exploration_log'
p179
(lp180
F0.97
aF0.965
aF0.96
aF0.955
aF0.95
aF0.945
aF0.94
aF0.935
aF0.9299999999999999
aF0.925
aF0.92
aF0.915
aF0.91
aF0.905
aF0.9
aF0.895
aF0.89
aF0.885
aF0.88
aF0.875
aF0.87
aF0.865
aF0.86
aF0.855
aF0.85
aF0.845
aF0.84
aF0.835
aF0.83
aF0.825
aF0.8200000000000001
aF0.815
aF0.81
aF0.8049999999999999
aF0.8
aF0.795
aF0.79
aF0.785
aF0.78
aF0.775
aF0.77
aF0.765
aF0.76
aF0.755
aF0.75
aF0.745
aF0.74
aF0.735
aF0.73
aF0.725
aF0.72
aF0.7150000000000001
aF0.71
aF0.7050000000000001
aF0.7
asS'best_mean_log'
p181
(lp182
F-inf
aF-inf
aF-inf
aF-inf
ag5
(g9
S'3333334\xc0'
p183
tp184
Rp185
ag185
ag185
ag185
ag185
ag185
ag185
ag185
ag185
ag185
ag5
(g9
S')\\\x8f\xc2\xf5(4\xc0'
p186
tp187
Rp188
ag5
(g9
S'\xe1z\x14\xaeG!4\xc0'
p189
tp190
Rp191
ag191
ag191
ag5
(g9
S'\x14\xaeG\xe1z\x144\xc0'
p192
tp193
Rp194
ag5
(g9
S'\xcd\xcc\xcc\xcc\xcc\x0c4\xc0'
p195
tp196
Rp197
ag5
(g9
S'\xc3\xf5(\\\x8f\x024\xc0'
p198
tp199
Rp200
ag5
(g9
S'\x00\x00\x00\x00\x00\x004\xc0'
p201
tp202
Rp203
ag5
(g9
S'\xf6(\\\x8f\xc2\xf53\xc0'
p204
tp205
Rp206
ag5
(g9
S'\x14\xaeG\xe1z\xd43\xc0'
p207
tp208
Rp209
ag5
(g9
S'=\n\xd7\xa3p\xbd3\xc0'
p210
tp211
Rp212
ag5
(g9
S'\xf6(\\\x8f\xc2\xb53\xc0'
p213
tp214
Rp215
ag5
(g9
S'33333\xb33\xc0'
p216
tp217
Rp218
ag5
(g9
S'\\\x8f\xc2\xf5(\x9c3\xc0'
p219
tp220
Rp221
ag5
(g9
S'\x14\xaeG\xe1z\x943\xc0'
p222
tp223
Rp224
ag5
(g9
S'=\n\xd7\xa3p}3\xc0'
p225
tp226
Rp227
ag5
(g9
S'\xaeG\xe1z\x14n3\xc0'
p228
tp229
Rp230
ag5
(g9
S')\\\x8f\xc2\xf5h3\xc0'
p231
tp232
Rp233
ag5
(g9
S'R\xb8\x1e\x85\xebQ3\xc0'
p234
tp235
Rp236
ag5
(g9
S'H\xe1z\x14\xaeG3\xc0'
p237
tp238
Rp239
ag239
ag5
(g9
S'=\n\xd7\xa3p=3\xc0'
p240
tp241
Rp242
ag5
(g9
S'\xf6(\\\x8f\xc253\xc0'
p243
tp244
Rp245
ag5
(g9
S'fffff&3\xc0'
p246
tp247
Rp248
ag5
(g9
S'\x1f\x85\xebQ\xb8\x1e3\xc0'
p249
tp250
Rp251
ag5
(g9
S'\x9a\x99\x99\x99\x99\x193\xc0'
p252
tp253
Rp254
ag254
ag254
ag254
ag254
ag254
ag254
ag254
ag254
ag254
ag254
ag254
ag254
ag254
ag5
(g9
S'\x8f\xc2\xf5(\\\x0f3\xc0'
p255
tp256
Rp257
ag5
(g9
S'\xcd\xcc\xcc\xcc\xcc\x0c3\xc0'
p258
tp259
Rp260
asS'episodes_log'
p261
(lp262
(lp263
F-21.0
aF-20.0
aF-19.0
aF-21.0
aF-20.0
aF-19.0
aF-21.0
aF-21.0
aF-21.0
aF-20.0
aF-21.0
aF-20.0
aF-19.0
aF-21.0
aF-20.0
aF-19.0
aF-19.0
aF-21.0
aF-20.0
aF-19.0
aF-20.0
aF-21.0
aF-21.0
aF-19.0
aF-19.0
aF-19.0
aF-20.0
aF-19.0
aF-21.0
aF-21.0
aF-20.0
aF-21.0
aF-21.0
aF-20.0
aF-21.0
aF-21.0
aF-21.0
aF-21.0
aF-20.0
aF-21.0
aF-21.0
aF-19.0
aF-21.0
aF-20.0
aF-20.0
aF-20.0
aF-21.0
aF-20.0
aF-20.0
aF-19.0
aF-21.0
aF-18.0
aF-21.0
aF-20.0
aF-21.0
aF-20.0
aF-21.0
aF-21.0
aF-21.0
aF-20.0
aF-19.0
aF-20.0
aF-21.0
aF-21.0
aF-20.0
aF-19.0
aF-21.0
aF-20.0
aF-20.0
aF-21.0
aF-20.0
aF-21.0
aF-20.0
aF-19.0
aF-19.0
aF-21.0
aF-18.0
aF-20.0
aF-21.0
aF-20.0
aF-21.0
aF-20.0
aF-21.0
aF-20.0
aF-20.0
aF-19.0
aF-21.0
aF-21.0
aF-21.0
aF-21.0
aF-20.0
aF-20.0
aF-21.0
aF-18.0
aF-19.0
aF-20.0
aF-21.0
aF-19.0
aF-21.0
aF-21.0
aF-21.0
aF-21.0
aF-21.0
aF-21.0
aF-21.0
aF-20.0
aF-21.0
aF-21.0
aF-19.0
aF-19.0
aF-21.0
aF-21.0
aF-20.0
aF-19.0
aF-19.0
aF-21.0
aF-20.0
aF-20.0
aF-21.0
aF-21.0
aF-20.0
aF-21.0
aF-21.0
aF-20.0
aF-21.0
aF-18.0
aF-21.0
aF-17.0
aF-20.0
aF-20.0
aF-21.0
aF-19.0
aF-20.0
aF-21.0
aF-21.0
aF-21.0
aF-20.0
aF-18.0
aF-21.0
aF-21.0
aF-21.0
aF-21.0
aF-19.0
aF-21.0
aF-20.0
aF-19.0
aF-20.0
aF-21.0
aF-21.0
aF-21.0
aF-21.0
aF-19.0
aF-21.0
aF-20.0
aF-21.0
aF-21.0
aF-20.0
aF-21.0
aF-18.0
aF-20.0
aF-19.0
aF-21.0
aF-20.0
aF-21.0
aF-21.0
aF-20.0
aF-20.0
aF-19.0
aF-21.0
aF-20.0
aF-19.0
aF-20.0
aF-20.0
aF-20.0
aF-19.0
aF-21.0
aF-21.0
aF-21.0
aF-19.0
aF-20.0
aF-21.0
aF-19.0
aF-20.0
aF-21.0
aF-21.0
aF-18.0
aF-20.0
aF-20.0
aF-21.0
aF-21.0
aF-21.0
aF-20.0
aF-21.0
aF-21.0
aF-20.0
aF-21.0
aF-20.0
aF-19.0
aF-21.0
aF-19.0
aF-20.0
aF-21.0
aF-21.0
aF-19.0
aF-21.0
aF-21.0
aF-20.0
aF-20.0
aF-20.0
aF-18.0
aF-21.0
aF-20.0
aF-18.0
aF-19.0
aF-18.0
aF-19.0
aF-21.0
aF-20.0
aF-21.0
aF-21.0
aF-21.0
aF-21.0
aF-21.0
aF-21.0
aF-20.0
aF-19.0
aF-20.0
aF-21.0
aF-19.0
aF-20.0
aF-20.0
aF-20.0
aF-21.0
aF-20.0
aF-21.0
aF-21.0
aF-21.0
aF-21.0
aF-20.0
aF-16.0
aF-21.0
aF-19.0
aF-18.0
aF-20.0
aF-20.0
aF-20.0
aF-20.0
aF-19.0
aF-20.0
aF-20.0
aF-20.0
aF-21.0
aF-20.0
aF-21.0
aF-21.0
aF-20.0
aF-18.0
aF-20.0
aF-17.0
aF-20.0
aF-21.0
aF-21.0
aF-19.0
aF-20.0
aF-19.0
aF-19.0
aF-19.0
aF-21.0
aF-21.0
aF-21.0
aF-20.0
aF-20.0
aF-21.0
aF-21.0
aF-20.0
aF-21.0
aF-21.0
aF-17.0
aF-21.0
aF-16.0
aF-19.0
aF-20.0
aF-20.0
aF-19.0
aF-21.0
aF-21.0
aF-19.0
aF-20.0
aF-19.0
aF-19.0
aF-20.0
aF-20.0
aF-19.0
aF-19.0
aF-16.0
aF-18.0
aF-20.0
aF-20.0
aF-20.0
aF-20.0
aF-17.0
aF-20.0
aF-17.0
aF-21.0
aF-20.0
aF-19.0
aF-20.0
aF-19.0
aF-18.0
aF-20.0
aF-19.0
aF-17.0
aF-21.0
aF-20.0
aF-21.0
aF-21.0
aF-20.0
aF-20.0
aF-20.0
aF-21.0
aF-20.0
aF-21.0
aF-19.0
aF-21.0
aF-20.0
aF-17.0
aF-19.0
aF-19.0
aF-21.0
aF-21.0
aF-17.0
aF-19.0
aF-19.0
aF-20.0
aF-20.0
aF-16.0
aF-21.0
aF-18.0
aF-21.0
aF-20.0
aF-20.0
aF-19.0
aF-18.0
aF-20.0
aF-17.0
aF-20.0
aF-17.0
aF-18.0
aF-20.0
aF-19.0
aF-20.0
aF-21.0
aF-19.0
aF-17.0
aF-17.0
aF-18.0
aF-20.0
aF-20.0
aF-18.0
aF-20.0
aF-19.0
aF-20.0
aF-21.0
aF-17.0
aF-21.0
aF-20.0
aF-20.0
aF-20.0
aF-20.0
aF-18.0
aF-21.0
aF-20.0
aF-19.0
aF-20.0
aF-18.0
aF-18.0
aF-19.0
aF-20.0
aF-20.0
aF-21.0
aF-21.0
aF-17.0
aF-20.0
aF-15.0
aF-18.0
aF-19.0
aF-18.0
aF-20.0
aF-21.0
aF-20.0
aF-19.0
aF-18.0
aF-19.0
aF-20.0
aF-16.0
aF-17.0
aF-20.0
aF-19.0
aF-19.0
aF-18.0
aF-19.0
aF-20.0
aF-18.0
aF-19.0
aF-21.0
aF-19.0
aF-19.0
aF-18.0
aF-19.0
aF-17.0
aF-19.0
aF-18.0
aF-19.0
aF-21.0
aF-20.0
aF-20.0
aF-19.0
aF-21.0
aF-19.0
aF-20.0
aF-17.0
aF-21.0
aF-18.0
aF-19.0
aF-20.0
aF-20.0
aF-19.0
aF-20.0
aF-17.0
aF-21.0
aF-17.0
aF-21.0
aF-18.0
aF-19.0
aF-18.0
aF-18.0
aF-20.0
aF-20.0
aF-20.0
aF-21.0
aF-21.0
aF-21.0
aF-16.0
aF-16.0
aF-19.0
aF-19.0
aF-20.0
aF-17.0
aF-21.0
aF-19.0
aF-21.0
aF-18.0
aF-21.0
aF-20.0
aF-19.0
aF-20.0
aF-21.0
aF-19.0
aF-20.0
aF-20.0
aF-21.0
aF-19.0
aF-20.0
aF-17.0
aF-20.0
aF-20.0
aF-19.0
aF-18.0
aF-19.0
aF-20.0
aF-20.0
aF-18.0
aF-21.0
aF-20.0
aF-19.0
aF-20.0
aF-20.0
aF-20.0
aF-18.0
aF-20.0
aF-17.0
aF-21.0
aF-19.0
aF-18.0
aF-21.0
aF-20.0
aF-19.0
aF-19.0
aF-21.0
aF-17.0
aF-20.0
aF-20.0
aF-19.0
aF-21.0
aF-17.0
aF-17.0
aF-18.0
aF-19.0
aF-19.0
aF-20.0
aF-20.0
aF-19.0
aF-19.0
aF-19.0
aF-19.0
aF-21.0
aF-18.0
aF-21.0
aF-18.0
aF-20.0
aF-19.0
aF-21.0
aF-19.0
aF-19.0
aF-20.0
aF-20.0
aF-18.0
aF-19.0
aF-18.0
aF-18.0
aF-20.0
aF-17.0
aF-18.0
aF-21.0
aF-20.0
aF-18.0
aF-20.0
aF-19.0
aF-20.0
aF-21.0
aF-18.0
aF-21.0
aF-20.0
aF-20.0
aF-20.0
aF-17.0
aF-18.0
aF-20.0
aF-18.0
aF-19.0
aF-19.0
aF-17.0
aF-20.0
aF-14.0
aF-18.0
aF-19.0
aF-19.0
aF-17.0
aF-21.0
aF-19.0
aF-20.0
aF-16.0
aF-15.0
aF-17.0
aF-19.0
aF-18.0
aF-19.0
aF-21.0
aF-17.0
aF-20.0
aF-20.0
aF-19.0
aF-20.0
aF-18.0
aF-19.0
aF-20.0
aF-20.0
aag263
ag263
ag263
ag263
ag263
ag263
ag263
ag263
ag263
ag263
ag263
ag263
ag263
ag263
ag263
ag263
ag263
ag263
ag263
ag263
ag263
ag263
ag263
ag263
ag263
ag263
ag263
ag263
ag263
ag263
ag263
ag263
ag263
ag263
ag263
ag263
ag263
ag263
ag263
ag263
ag263
ag263
ag263
ag263
ag263
ag263
ag263
ag263
ag263
ag263
ag263
ag263
ag263
ag263
as.